(dp1
S'output'
p2
S"<type 'exceptions.ValueError'> need more than 1 value to unpack"
p3
sS'layer'
p4
S'/home/manu/proyectos/web2py/applications/controlies/views/default/index.html'
p5
sS'code'
p6
S'response.files.append(URL(\'static\',\'js/jquery.tzineClock/jquery.tzineClock.css\'))\nresponse.write(\'\\n\', escape=False)\nresponse.files.append(URL(\'static\',\'js/jquery.tzineClock/jquery.tzineClock.js\'))\nresponse.write(\'\\n\\n \\n\', escape=False)\nleft_sidebar_enabled=right_sidebar_enabled=False\nresponse.write(\'\\n\', escape=False)\nresponse.write(\'<!DOCTYPE html>\\n<html lang="\', escape=False)\nresponse.write(T.accepted_language or \'en\')\nresponse.write(\'" class="no-js"><!-- no-js need it for modernzr -->\\n  <head>\\n    \\n    <meta charset="utf-8" />        \\n    <!-- www.phpied.com/conditional-comments-block-downloads/ -->\\n    <!--[if IE]><![endif]-->    \\n    <!-- Always force latest IE rendering engine \\n     (even in intranet) & Chrome Frame \\n     Remove this if you use the .htaccess -->\\n    <meta http-equiv="X-UA-Compatible" content="IE=edge,chrome=1">\\n    \\n    <title>\', escape=False)\nresponse.write(response.title or request.application)\nresponse.write(\'</title>\\n    \\n    <!-- http://dev.w3.org/html5/markup/meta.name.html -->\\n    <meta name="application-name" content="\', escape=False)\nresponse.write(request.application)\nresponse.write(\'" /> \\n    \\n    \\n    <!-- Place favicon.ico and apple-touch-icon.png in the root of your domain and delete these references -->\\n    <link rel="shortcut icon" href="\', escape=False)\nresponse.write(URL(\'static\',\'favicon.ico\'))\nresponse.write(\'" type="image/x-icon">\\n    <link rel="apple-touch-icon" href="\', escape=False)\nresponse.write(URL(\'static\',\'favicon.png\'))\nresponse.write(\'">\\n\\n    <!-- For the less-enabled mobile browsers like Opera Mini -->\\n    <link rel="stylesheet" media="handheld" href="\', escape=False)\nresponse.write(URL(\'static\',\'css/handheld.css\'))\nresponse.write(\'">\\n    \\n    <!-- All JavaScript at the bottom, except for Modernizr which enables HTML5 elements & feature detects -->\\n    <script src="\', escape=False)\nresponse.write(URL(\'static\',\'js/modernizr-1.7.min.js\'))\nresponse.write(\'"></script>\\n    \\n\', escape=False)\nresponse.files.append(URL(\'static\',\'js/jdgrid/css/ui.jqgrid.css\'))\nresponse.write(\'\\n\', escape=False)\nresponse.files.append(URL(\'static\',\'js/jquery/jquery.dropdown.js\'))\nresponse.write(\'\\n\', escape=False)\nresponse.files.append(URL(\'static\',\'js/jdgrid/grid.locale-sp.js\'))\nresponse.write(\' \\n\', escape=False)\nresponse.files.append(URL(\'static\',\'js/jdgrid/jquery.jqGrid.min.js\'))\nresponse.write(\'\\n\', escape=False)\nresponse.files.append(URL(\'static\',\'js/jdgrid/src/grid.common.js\'))\nresponse.write(\'\\n\', escape=False)\nresponse.files.append(URL(\'static\',\'js/jdgrid/src/grid.formedit.js\'))\nresponse.write(\'\\n\', escape=False)\nresponse.files.append(URL(\'static\',\'js/jdgrid/src/grid.custom.js\'))\nresponse.write(\'\\n    \\n    \', escape=False)\n#------  require CSS and JS files for this page (read info in base.css) ------\nresponse.write(\'\\n    \', escape=False)\nresponse.files.append(URL(\'static\',\'css/base.css\'))\nresponse.write(\'\\n    \', escape=False)\nresponse.files.append(URL(\'static\',\'css/superfish.css\'))\nresponse.write(\'\\n    \', escape=False)\nresponse.files.append(URL(\'static\',\'js/superfish.js\'))\nresponse.write(\'\\n\\n    \', escape=False)\nresponse.files.append(URL(\'static\',\'ui/css/ui-lightness/jquery-ui-1.8.9.custom.css\'))\nresponse.write(\'\\n\\n    \\n   \\n    \\n    \\n    \', escape=False)\n#------ include web2py specific js code (jquery, calendar, form stuff) ------\nresponse.write(\'\\n    \', escape=False)\nresponse.files.insert(0,URL(\'static\',\'js/jquery/jquery.js\'))\nresponse.files.insert(1,URL(\'static\',\'js/jquery/jquery-ui.custom.min.js\'))\nresponse.files.insert(2,URL(\'static\',\'css/calendar.css\'))\nresponse.files.insert(3,URL(\'static\',\'js/calendar.js\'))\nfor _item in response.meta or []:\n    response.write(\'\\n     <meta name="\', escape=False)\n    response.write(_item)\n    response.write(\'" content="\', escape=False)\n    response.write(response.meta[_item])\n    response.write(\'" />\', escape=False)\n    pass\nfor _k,_file in enumerate(response.files or []):\n    if _file in response.files[:_k]:\n        continue\n    _file0=_file.lower().split(\'?\')[0]\n    if _file0.endswith(\'.css\'):\n        response.write(\'\\n     <link href="\', escape=False)\n        response.write(_file)\n        response.write(\'" rel="stylesheet" type="text/css" />\', escape=False)\n    elif _file0.endswith(\'.js\'):\n        response.write(\'\\n     <script src="\', escape=False)\n        response.write(_file)\n        response.write(\'" type="text/javascript"></script>\', escape=False)\n        pass\n    pass\nresponse.write(\'\\n  \\n<script type="text/javascript"><!--\\nfunction popup(url) {\\n  newwindow=window.open(url,\\\'name\\\',\\\'height=400,width=600\\\');\\n  if (window.focus) newwindow.focus();\\n  return false;\\n}\\nfunction collapse(id) { jQuery(\\\'#\\\'+id).slideToggle(); }\\nfunction fade(id,value) { if(value>0) jQuery(\\\'#\\\'+id).hide().fadeIn(\\\'slow\\\'); else jQuery(\\\'#\\\'+id).show().fadeOut(\\\'slow\\\'); }\\nfunction ajax(u,s,t) {\\n    query = \\\'\\\';\\n    if (typeof s == "string") {\\n        d = jQuery(s).serialize();\\n        if(d){ query = d; }\\n    } else {\\n        pcs = [];\\n        for(i=0; i<s.length; i++) {\\n            q = jQuery("[name="+s[i]+"]").serialize();\\n            if(q){pcs.push(q);}\\n        }\\n        if (pcs.length>0){query = pcs.join("&");}\\n    }\\n    jQuery.ajax({type: "POST", url: u, data: query, success: function(msg) { if(t) { if(t==\\\':eval\\\') eval(msg); else jQuery("#" + t).html(msg); } } }); \\n}\\n\\nString.prototype.reverse = function () { return this.split(\\\'\\\').reverse().join(\\\'\\\');};\\nfunction web2py_ajax_init() {\\n  jQuery(\\\'.hidden\\\').hide();\\n  jQuery(\\\'.error\\\').hide().slideDown(\\\'slow\\\');\\n  jQuery(\\\'.flash\\\').click(function() { jQuery(this).fadeOut(\\\'slow\\\'); return false; });\\n  // jQuery(\\\'input[type=submit]\\\').click(function(){var t=jQuery(this);t.hide();t.after(\\\'<input class="submit_disabled" disabled="disabled" type="submit" name="\\\'+t.attr("name")+\\\'_dummy" value="\\\'+t.val()+\\\'">\\\')});\\n  jQuery(\\\'input.integer\\\').live(\\\'keyup\\\', function(){this.value=this.value.reverse().replace(/[^0-9\\\\-]|\\\\-(?=.)/g,\\\'\\\').reverse();});\\n  jQuery(\\\'input.double,input.decimal\\\').live(\\\'keyup\\\', function(){this.value=this.value.reverse().replace(/[^0-9\\\\-\\\\.,]|[\\\\-](?=.)|[\\\\.,](?=[0-9]*[\\\\.,])/g,\\\'\\\').reverse();});\\n  jQuery("input[type=\\\'checkbox\\\'].delete").live(\\\'click\\\', function(){ if(this.checked) if(!confirm("\', escape=False)\nresponse.write(T(\'Sure you want to delete this object?\'))\nresponse.write(\'")) this.checked=false; });\\n  try {jQuery("input.date").live(\\\'focus\\\',function() {Calendar.setup({\\n     inputField:this, ifFormat:"\', escape=False)\nresponse.write(T(\'%Y-%m-%d\'))\nresponse.write(\'", showsTime:false\\n  }); }); } catch(e) {};\\n  try { jQuery("input.datetime").live(\\\'focus\\\', function() {Calendar.setup({\\n     inputField:this, ifFormat:"\', escape=False)\nresponse.write(T(\'%Y-%m-%d %H:%M:%S\'))\nresponse.write(\'", showsTime: true,timeFormat: "24"\\n  }); }); } catch(e) {};\\n\\n  jQuery("input.time").live(\\\'focus\\\', function() { var el = jQuery(this); \\n          if (!el.hasClass(\\\'hasTimeEntry\\\')) try { el.timeEntry(); } catch(e) {}; \\n  });\\n};\\n\\njQuery(document).ready(function() {   \\n   var flash = jQuery(\\\'.flash\\\');\\n   flash.hide();\\n   if(flash.html()) flash.slideDown();\\n   web2py_ajax_init();\\n});\\nfunction web2py_trap_form(action,target) {\\n   jQuery(\\\'#\\\'+target+\\\' form\\\').each(function(i){\\n      var form=jQuery(this);\\n      if(!form.hasClass(\\\'no_trap\\\'))\\n        form.submit(function(obj){\\n         jQuery(\\\'.flash\\\').hide().html(\\\'\\\');\\n         web2py_ajax_page(\\\'post\\\',action,form.serialize(),target);\\n         return false;\\n      });\\n   });\\n}\\nfunction web2py_ajax_page(method,action,data,target) {\\n  jQuery.ajax({\\\'type\\\':method,\\\'url\\\':action,\\\'data\\\':data,\\n    \\\'beforeSend\\\':function(xhr) {\\n      xhr.setRequestHeader(\\\'web2py-component-location\\\',document.location);\\n      xhr.setRequestHeader(\\\'web2py-component-element\\\',target);},\\n    \\\'complete\\\':function(xhr,text){\\n      var html=xhr.responseText;\\n      var content=xhr.getResponseHeader(\\\'web2py-component-content\\\'); \\n      var command=xhr.getResponseHeader(\\\'web2py-component-command\\\');\\n      var flash=xhr.getResponseHeader(\\\'web2py-component-flash\\\');\\n      var t = jQuery(\\\'#\\\'+target);\\n      if(content==\\\'prepend\\\') t.prepend(html); \\n      else if(content==\\\'append\\\') t.append(html);\\n      else if(content!=\\\'hide\\\') t.html(html);  \\n      web2py_trap_form(action,target);\\n      web2py_ajax_init();      \\n      if(command) eval(command);\\n      if(flash) jQuery(\\\'.flash\\\').html(flash).slideDown();\\n      }\\n    });\\n}\\nfunction web2py_component(action,target) {\\n  jQuery(document).ready(function(){ web2py_ajax_page(\\\'get\\\',action,null,target); });\\n}\\nfunction web2py_comet(url,onmessage,onopen,onclose) {\\n  if ("WebSocket" in window) {\\n    var ws = new WebSocket(url);\\n    ws.onopen = onopen?onopen:(function(){});\\n    ws.onmessage = onmessage;\\n    ws.onclose = onclose?onclose:(function(){});\\n    return true; // supported\\n  } else return false; // not supported\\n}\\n//--></script>\\n\', escape=False)\nresponse.write(\'\\n\\n    \', escape=False)\n#using sidebars need to know what sidebar you want to use\n#prior of using it, because of static width size of content, you can use\n#left_sidebar, right_sidebar, both or none (False left and right)\nleft_sidebar_enabled = globals().get(\'left_sidebar_enabled\',False)\nright_sidebar_enabled = globals().get(\'right_sidebar_enabled\',False)\nif left_sidebar_enabled and right_sidebar_enabled: width_content=\'63%\'\nelif left_sidebar_enabled != right_sidebar_enabled: width_content=\'740px\'\nelse: width_content=\'100%\'\nif left_sidebar_enabled: left_sidebar_style = \'style="display: block;"\'\nelse: left_sidebar_style = \'style="display: none;"\'\nif right_sidebar_enabled: right_sidebar_style = \'style="display: block;"\'\nelse: right_sidebar_style = \'style="display: none;"\'\nstyle_content = \'style="width: %s"\' % width_content\nresponse.write(\'\\n  </head>\\n  \\n  <body> \\n    \\n    <div class="flash">\', escape=False)\nresponse.write(response.flash or \'\')\nresponse.write(\'</div> <!-- notification div -->\\n    \\n    <div id="container">                        \\n      <div id="wrapper">        \\n\\t\\t    <div class="topbar">\\n\\t\\t      <div class="container">    \\n\\t\\t        <div class="sixteen columns">\\n\\t\\t         \', escape=False)\nif auth.user is not None:\n    response.write(\'\\n\\t\\t          <div style="float:left; vertical-align:middle;" id="myTitle">Control<span class="fontTitle">IES</span><br></div>\\n\\t\\t          <div id="menu">\', escape=False)\n    response.write(MENU(response.menu,_class=\'sf-menu\'))\n    response.write(\'</div>\\n              \\t  \', escape=False)\n    pass\nresponse.write(\'\\n\\t\\t        </div>\\n\\t\\t      </div>\\n\\t\\t    </div><!-- topbar -->\\n    \\n            <div id="header"> <!-- header and login nav -->\\n              \', escape=False)\nresponse.write(\' <!-- this is default header -->\\n\\t\\t\\t\\t\', escape=False)\ntry:\n    response.write(SPAN(T(\'Welcome\'),\' \',auth.user.first_name,\' [ \', A(T(\'logout\'),_href=URL(\'default\',\'user\')+\'/logout\'), \']\',_class=\'auth_navbar\'))\nexcept:pass\nresponse.write(\'   \\n\\t              <div style="clear: both;"></div><!-- Clear the divs -->\\n              \', escape=False)\nresponse.write(\'                                     \\n            </div><!-- header  -->\\n    \\n    \\n            <div id="page"> <!-- Here my central body -->     \\n        \\n                  \', escape=False)\nif left_sidebar_enabled:\n    response.write(\'\\n                      <div id="left_sidebar" \', escape=False)\n    response.write(XML(left_sidebar_style))\n    response.write(\' >\\n                        <div style="padding: 4px;">\\n                      \', escape=False)\n    response.write(\'New Left Sidebar Content\', escape=False)\n    response.write(\'       \\n                        </div>\\n                      </div><!-- left_sidebar -->\\n                  \', escape=False)\n    pass\nresponse.write(\'\\n        \\t\\t  <br>\\n                  <!-- content -->\\n                  <div id="content" \', escape=False)\nresponse.write(XML(style_content))\nresponse.write(\'>\\n                  \\n                      \', escape=False)\nresponse.write(\'\\n\\n\', escape=False)\nif auth.user is not None:\n    response.write(\'\\n\\n\\n <script type="text/javascript">\\n    jQuery(document).ready(function(){\\n        jQuery(\\\'#fancyClock\\\').tzineClock();\\n    });\\n</script>\\n\', escape=False)\n    pass\nresponse.write(\'\\n \\n\\n\\n\', escape=False)\nif \'message\' in globals():\n    response.write(\'\\n\\n<h1>\', escape=False)\n    response.write(message)\n    response.write(\'</h1>\\n\\n<hr />\\n\\n\', escape=False)\nelse:\n    response.write(\'\\n\', escape=False)\n    response.write(BEAUTIFY(response._vars))\n    response.write(\'\\n\', escape=False)\n    pass\nresponse.write(\'\\n\\n<div id="fancyClock" style="float:center;"></div>\\n<br><br><br><br><br><br><br><br><br><br><br><br><br><br><br><br><br>\\n\', escape=False)\nresponse.write(\'\\n\', escape=False)\nresponse.write(\'\\n\', escape=False)\nresponse.write(\'           \\n                  \\n                  </div>\\n                  <!-- content -->\\n        \\n                  \', escape=False)\nif right_sidebar_enabled:\n    response.write(\'\\n                      <div id="right_sidebar" \', escape=False)\n    response.write(XML(right_sidebar_style))\n    response.write(\' >\\n                        <div style="padding: 4px;">\\n                          \', escape=False)\n    response.write(\'New Right Sidebar Content\', escape=False)\n    response.write(\'\\n                        </div>\\n                  </div><!-- right_sidebar -->\\n                      \', escape=False)\n    pass\nresponse.write(\'\\n        \\n        \\n              <div style="clear: both;"></div><!-- Clear the divs -->\\n              \\n            </div><!-- page -->                         \\n\\n\\t<div style="text-align:center">\\n\\t<p class="ui-state-default ui-corner-all" style="padding:2px; margin-top:1em; text-align:center; ">\\n\\t<span style="float:center; margin:-2px 5px 0 0;"></span>\\n\\t\\t<span id="licenseText">Copyright (C) 2012 - ControlIES es una aplicaci\\xc3\\xb3n bajo licencia GPL versi\\xc3\\xb3n 2 \\xc3\\xb3 posteriores.</span> <a href="javascript:showInfo();">[<span id="licenseInfo">+ info</span>]</a>\\n\\t</p>    \\n     </div>\\n      </div><!-- wrapper -->\\n    </div><!-- container -->        \\n\\n\\t<script language="javascript">\\n\\tfunction showInfo(){\\n\\t\\t jQuery( "#dialog-info" ).dialog({\\n\\t\\t\\tresizable: false,\\n\\t\\t\\theight:400,\\n\\t\\t\\twidth:700,\\n\\t\\t\\tmodal: true,\\n\\t\\t\\tbuttons: { "Cerrar": function() { $( this ).dialog( "close" ); }}\\n\\t\\t }).dialog(\\\'open\\\');\\n\\t}\\n\\t</script>\\n   <div id="dialog-info" title="Acerca de ControlIES" style="display:none;"><br>\\n       <b>Versi&oacute;n del paquete:</b> 0.6.4-4<br><br>\\n       <b>Autores:</b>\\n       <p> - Manuel Mora Gordillo - manuel.mora.gordillo@gmail.com</p>\\n       <p> - Francisco Dami\\xc3\\xa1n M\\xc3\\xa9ndez Palma - fmendezpalma@gmail.com</p>\\n       <p> - Jos\\xc3\\xa9 Luis Redrejo Rodr\\xc3\\xadguez - jredrejo@debian.org</p><br>\\n       <b>Licencia:</b><br>\\n       <b>ControlIES</b> is free software: you can redistribute it and/or modify it under the terms of the GNU General Public License as published by\\n the Free Software Foundation, either version 3 of the License, or (at your option) any later version.<br>\\n <b>ControlIES</b> is distributed in the hope that it will be useful, but WITHOUT ANY WARRANTY; without even the implied warranty of\\n MERCHANTABILITY or FITNESS FOR A PARTICULAR PURPOSE. See the GNU General Public License for more details.<br>\\n You should have received a copy of the GNU General Public License along with <b>ControlIES</b>. If not, see <a href="http://www.gnu.org/licenses/" target="_blank">http://www.gnu.org/licenses/</a>.<br>\\n       <p style="text-align:center;"><a href="http://desarrollo.educarex.es/linex/projects/servidoressecundaria/repository/show/controlies" target="_blank">C\\xc3\\xb3digo Fuente</a></p>\\n   </div>\\n\\n  </body>\\n</html>\\n\', escape=False)'
p7
sS'snapshot'
p8
(dp9
S'exception'
p10
(dp11
S'__hash__'
p12
S"<method-wrapper '__hash__' of exceptions.ValueError object>"
p13
sS'__setattr__'
p14
S"<method-wrapper '__setattr__' of exceptions.ValueError object>"
p15
sS'__reduce_ex__'
p16
S'<built-in method __reduce_ex__ of exceptions.ValueError object>'
p17
sS'__getslice__'
p18
S"<method-wrapper '__getslice__' of exceptions.ValueError object>"
p19
sS'__getitem__'
p20
S"<method-wrapper '__getitem__' of exceptions.ValueError object>"
p21
sS'__setstate__'
p22
S'<built-in method __setstate__ of exceptions.ValueError object>'
p23
sS'__reduce__'
p24
S'<built-in method __reduce__ of exceptions.ValueError object>'
p25
sS'__str__'
p26
S"<method-wrapper '__str__' of exceptions.ValueError object>"
p27
sS'__format__'
p28
S'<built-in method __format__ of exceptions.ValueError object>'
p29
sS'__getattribute__'
p30
S"<method-wrapper '__getattribute__' of exceptions.ValueError object>"
p31
sS'__class__'
p32
S"<type 'exceptions.ValueError'>"
p33
sS'__unicode__'
p34
S'<built-in method __unicode__ of exceptions.ValueError object>'
p35
sS'__delattr__'
p36
S"<method-wrapper '__delattr__' of exceptions.ValueError object>"
p37
sS'__subclasshook__'
p38
S'<built-in method __subclasshook__ of type object>'
p39
sS'__repr__'
p40
S"<method-wrapper '__repr__' of exceptions.ValueError object>"
p41
sS'args'
p42
S"('need more than 1 value to unpack',)"
p43
sS'__dict__'
p44
S'{}'
p45
sS'__sizeof__'
p46
S'<built-in method __sizeof__ of exceptions.ValueError object>'
p47
sS'__doc__'
p48
S"'Inappropriate argument value (of correct type).'"
p49
sS'__init__'
p50
S"<method-wrapper '__init__' of exceptions.ValueError object>"
p51
sS'__new__'
p52
S'<built-in method __new__ of type object>'
p53
ssS'evalue'
p54
S'need more than 1 value to unpack'
p55
sS'request'
p56
ccopy_reg
_reconstructor
p57
(cgluon.html
BEAUTIFY
p58
c__builtin__
object
p59
NtRp60
(dp61
S'attributes'
p62
(dp63
sS'components'
p64
(lp65
g57
(cgluon.html
TABLE
p66
g59
NtRp67
(dp68
g62
(dp69
S'level'
p70
I5
ssS'parent'
p71
Nsg64
(lp72
g57
(cgluon.html
TR
p73
g59
NtRp74
(dp75
g62
(dp76
sg71
g67
sg64
(lp77
g57
(cgluon.html
TD
p78
g59
NtRp79
(dp80
g62
(dp81
S'_style'
p82
S'font-weight:bold;vertical-align:top'
p83
ssg71
g74
sg64
(lp84
S'ajax'
p85
asbag57
(g78
g59
NtRp86
(dp87
g62
(dp88
S'_valign'
p89
S'top'
p90
ssg71
g74
sg64
(lp91
S':'
asbag57
(g78
g59
NtRp92
(dp93
g62
(dp94
sg71
g74
sg64
(lp95
g57
(g58
g59
NtRp96
(dp97
g62
(dp98
g70
I5
ssg71
g92
sg64
(lp99
S'False'
p100
asbasbasbag57
(g73
g59
NtRp101
(dp102
g62
(dp103
sg71
g67
sg64
(lp104
g57
(g78
g59
NtRp105
(dp106
g62
(dp107
g82
g83
ssg71
g101
sg64
(lp108
S'application'
p109
asbag57
(g78
g59
NtRp110
(dp111
g62
(dp112
g89
g90
ssg71
g101
sg64
(lp113
S':'
asbag57
(g78
g59
NtRp114
(dp115
g62
(dp116
sg71
g101
sg64
(lp117
g57
(g58
g59
NtRp118
(dp119
g62
(dp120
g70
I5
ssg71
g114
sg64
(lp121
S'controlies'
p122
asbasbasbag57
(g73
g59
NtRp123
(dp124
g62
(dp125
sg71
g67
sg64
(lp126
g57
(g78
g59
NtRp127
(dp128
g62
(dp129
g82
g83
ssg71
g123
sg64
(lp130
g42
asbag57
(g78
g59
NtRp131
(dp132
g62
(dp133
g89
g90
ssg71
g123
sg64
(lp134
S':'
asbag57
(g78
g59
NtRp135
(dp136
g62
(dp137
sg71
g123
sg64
(lp138
g57
(g58
g59
NtRp139
(dp140
g62
(dp141
g70
I5
ssg71
g135
sg64
(lp142
g57
(g66
g59
NtRp143
(dp144
g62
(dp145
g70
I4
ssg71
Nsg64
(lp146
sbasbasbasbag57
(g73
g59
NtRp147
(dp148
g62
(dp149
sg71
g67
sg64
(lp150
g57
(g78
g59
NtRp151
(dp152
g62
(dp153
g82
g83
ssg71
g147
sg64
(lp154
S'body'
p155
asbag57
(g78
g59
NtRp156
(dp157
g62
(dp158
g89
g90
ssg71
g147
sg64
(lp159
S':'
asbag57
(g78
g59
NtRp160
(dp161
g62
(dp162
sg71
g147
sg64
(lp163
g57
(g58
g59
NtRp164
(dp165
g62
(dp166
g70
I5
ssg71
g160
sg64
(lp167
S'<cStringIO.StringO object at 0xa617600>'
p168
asbasbasbag57
(g73
g59
NtRp169
(dp170
g62
(dp171
sg71
g67
sg64
(lp172
g57
(g78
g59
NtRp173
(dp174
g62
(dp175
g82
g83
ssg71
g169
sg64
(lp176
S'cid'
p177
asbag57
(g78
g59
NtRp178
(dp179
g62
(dp180
g89
g90
ssg71
g169
sg64
(lp181
S':'
asbag57
(g78
g59
NtRp182
(dp183
g62
(dp184
sg71
g169
sg64
(lp185
g57
(g58
g59
NtRp186
(dp187
g62
(dp188
g70
I5
ssg71
g182
sg64
(lp189
S'None'
p190
asbasbasbag57
(g73
g59
NtRp191
(dp192
g62
(dp193
sg71
g67
sg64
(lp194
g57
(g78
g59
NtRp195
(dp196
g62
(dp197
g82
g83
ssg71
g191
sg64
(lp198
S'client'
p199
asbag57
(g78
g59
NtRp200
(dp201
g62
(dp202
g89
g90
ssg71
g191
sg64
(lp203
S':'
asbag57
(g78
g59
NtRp204
(dp205
g62
(dp206
sg71
g191
sg64
(lp207
g57
(g58
g59
NtRp208
(dp209
g62
(dp210
g70
I5
ssg71
g204
sg64
(lp211
S'127.0.0.1'
p212
asbasbasbag57
(g73
g59
NtRp213
(dp214
g62
(dp215
sg71
g67
sg64
(lp216
g57
(g78
g59
NtRp217
(dp218
g62
(dp219
g82
g83
ssg71
g213
sg64
(lp220
S'controller'
p221
asbag57
(g78
g59
NtRp222
(dp223
g62
(dp224
g89
g90
ssg71
g213
sg64
(lp225
S':'
asbag57
(g78
g59
NtRp226
(dp227
g62
(dp228
sg71
g213
sg64
(lp229
g57
(g58
g59
NtRp230
(dp231
g62
(dp232
g70
I5
ssg71
g226
sg64
(lp233
S'default'
p234
asbasbasbag57
(g73
g59
NtRp235
(dp236
g62
(dp237
sg71
g67
sg64
(lp238
g57
(g78
g59
NtRp239
(dp240
g62
(dp241
g82
g83
ssg71
g235
sg64
(lp242
S'cookies'
p243
asbag57
(g78
g59
NtRp244
(dp245
g62
(dp246
g89
g90
ssg71
g235
sg64
(lp247
S':'
asbag57
(g78
g59
NtRp248
(dp249
g62
(dp250
sg71
g235
sg64
(lp251
g57
(g58
g59
NtRp252
(dp253
g62
(dp254
g70
I5
ssg71
g248
sg64
(lp255
g57
(g66
g59
NtRp256
(dp257
g62
(dp258
g70
I4
ssg71
Nsg64
(lp259
g57
(g73
g59
NtRp260
(dp261
g62
(dp262
sg71
g256
sg64
(lp263
g57
(g78
g59
NtRp264
(dp265
g62
(dp266
g82
g83
ssg71
g260
sg64
(lp267
S'session_id_controlies'
p268
asbag57
(g78
g59
NtRp269
(dp270
g62
(dp271
g89
g90
ssg71
g260
sg64
(lp272
S':'
asbag57
(g78
g59
NtRp273
(dp274
g62
(dp275
sg71
g260
sg64
(lp276
g57
(g58
g59
NtRp277
(dp278
g62
(dp279
g70
I4
ssg71
g273
sg64
(lp280
S'127.0.0.1-6177c4d9-9791-4517-8f7c-bd3585dbb683'
p281
ag57
(g66
g59
NtRp282
(dp283
g62
(dp284
g70
I3
ssg71
Nsg64
(lp285
g57
(g73
g59
NtRp286
(dp287
g62
(dp288
sg71
g282
sg64
(lp289
g57
(g78
g59
NtRp290
(dp291
g62
(dp292
g82
g83
ssg71
g286
sg64
(lp293
S'comment'
p294
asbag57
(g78
g59
NtRp295
(dp296
g62
(dp297
g89
g90
ssg71
g286
sg64
(lp298
S':'
asbag57
(g78
g59
NtRp299
(dp300
g62
(dp301
sg71
g286
sg64
(lp302
g57
(g58
g59
NtRp303
(dp304
g62
(dp305
g70
I3
ssg71
g299
sg64
(lp306
S''
asbasbasbag57
(g73
g59
NtRp307
(dp308
g62
(dp309
sg71
g282
sg64
(lp310
g57
(g78
g59
NtRp311
(dp312
g62
(dp313
g82
g83
ssg71
g307
sg64
(lp314
S'domain'
p315
asbag57
(g78
g59
NtRp316
(dp317
g62
(dp318
g89
g90
ssg71
g307
sg64
(lp319
S':'
asbag57
(g78
g59
NtRp320
(dp321
g62
(dp322
sg71
g307
sg64
(lp323
g57
(g58
g59
NtRp324
(dp325
g62
(dp326
g70
I3
ssg71
g320
sg64
(lp327
S''
asbasbasbag57
(g73
g59
NtRp328
(dp329
g62
(dp330
sg71
g282
sg64
(lp331
g57
(g78
g59
NtRp332
(dp333
g62
(dp334
g82
g83
ssg71
g328
sg64
(lp335
S'expires'
p336
asbag57
(g78
g59
NtRp337
(dp338
g62
(dp339
g89
g90
ssg71
g328
sg64
(lp340
S':'
asbag57
(g78
g59
NtRp341
(dp342
g62
(dp343
sg71
g328
sg64
(lp344
g57
(g58
g59
NtRp345
(dp346
g62
(dp347
g70
I3
ssg71
g341
sg64
(lp348
S''
asbasbasbag57
(g73
g59
NtRp349
(dp350
g62
(dp351
sg71
g282
sg64
(lp352
g57
(g78
g59
NtRp353
(dp354
g62
(dp355
g82
g83
ssg71
g349
sg64
(lp356
S'httponly'
p357
asbag57
(g78
g59
NtRp358
(dp359
g62
(dp360
g89
g90
ssg71
g349
sg64
(lp361
S':'
asbag57
(g78
g59
NtRp362
(dp363
g62
(dp364
sg71
g349
sg64
(lp365
g57
(g58
g59
NtRp366
(dp367
g62
(dp368
g70
I3
ssg71
g362
sg64
(lp369
S''
asbasbasbag57
(g73
g59
NtRp370
(dp371
g62
(dp372
sg71
g282
sg64
(lp373
g57
(g78
g59
NtRp374
(dp375
g62
(dp376
g82
g83
ssg71
g370
sg64
(lp377
S'max-age'
p378
asbag57
(g78
g59
NtRp379
(dp380
g62
(dp381
g89
g90
ssg71
g370
sg64
(lp382
S':'
asbag57
(g78
g59
NtRp383
(dp384
g62
(dp385
sg71
g370
sg64
(lp386
g57
(g58
g59
NtRp387
(dp388
g62
(dp389
g70
I3
ssg71
g383
sg64
(lp390
S''
asbasbasbag57
(g73
g59
NtRp391
(dp392
g62
(dp393
sg71
g282
sg64
(lp394
g57
(g78
g59
NtRp395
(dp396
g62
(dp397
g82
g83
ssg71
g391
sg64
(lp398
S'path'
p399
asbag57
(g78
g59
NtRp400
(dp401
g62
(dp402
g89
g90
ssg71
g391
sg64
(lp403
S':'
asbag57
(g78
g59
NtRp404
(dp405
g62
(dp406
sg71
g391
sg64
(lp407
g57
(g58
g59
NtRp408
(dp409
g62
(dp410
g70
I3
ssg71
g404
sg64
(lp411
S''
asbasbasbag57
(g73
g59
NtRp412
(dp413
g62
(dp414
sg71
g282
sg64
(lp415
g57
(g78
g59
NtRp416
(dp417
g62
(dp418
g82
g83
ssg71
g412
sg64
(lp419
S'secure'
p420
asbag57
(g78
g59
NtRp421
(dp422
g62
(dp423
g89
g90
ssg71
g412
sg64
(lp424
S':'
asbag57
(g78
g59
NtRp425
(dp426
g62
(dp427
sg71
g412
sg64
(lp428
g57
(g58
g59
NtRp429
(dp430
g62
(dp431
g70
I3
ssg71
g425
sg64
(lp432
S''
asbasbasbag57
(g73
g59
NtRp433
(dp434
g62
(dp435
sg71
g282
sg64
(lp436
g57
(g78
g59
NtRp437
(dp438
g62
(dp439
g82
g83
ssg71
g433
sg64
(lp440
S'version'
p441
asbag57
(g78
g59
NtRp442
(dp443
g62
(dp444
g89
g90
ssg71
g433
sg64
(lp445
S':'
asbag57
(g78
g59
NtRp446
(dp447
g62
(dp448
sg71
g433
sg64
(lp449
g57
(g58
g59
NtRp450
(dp451
g62
(dp452
g70
I3
ssg71
g446
sg64
(lp453
S''
asbasbasbasbasbasbasbasbasbasbasbag57
(g73
g59
NtRp454
(dp455
g62
(dp456
sg71
g67
sg64
(lp457
g57
(g78
g59
NtRp458
(dp459
g62
(dp460
g82
g83
ssg71
g454
sg64
(lp461
S'env'
p462
asbag57
(g78
g59
NtRp463
(dp464
g62
(dp465
g89
g90
ssg71
g454
sg64
(lp466
S':'
asbag57
(g78
g59
NtRp467
(dp468
g62
(dp469
sg71
g454
sg64
(lp470
g57
(g58
g59
NtRp471
(dp472
g62
(dp473
g70
I5
ssg71
g467
sg64
(lp474
g57
(g66
g59
NtRp475
(dp476
g62
(dp477
g70
I4
ssg71
Nsg64
(lp478
g57
(g73
g59
NtRp479
(dp480
g62
(dp481
sg71
g475
sg64
(lp482
g57
(g78
g59
NtRp483
(dp484
g62
(dp485
g82
g83
ssg71
g479
sg64
(lp486
S'app_folders'
p487
asbag57
(g78
g59
NtRp488
(dp489
g62
(dp490
g89
g90
ssg71
g479
sg64
(lp491
S':'
asbag57
(g78
g59
NtRp492
(dp493
g62
(dp494
sg71
g479
sg64
(lp495
g57
(g58
g59
NtRp496
(dp497
g62
(dp498
g70
I4
ssg71
g492
sg64
(lp499
S"set(['/home/manu/proyectos/web2py/applications/controlies/', '/home/manu/proyectos/web2py/applications/web2py_book/'])"
p500
asbasbasbag57
(g73
g59
NtRp501
(dp502
g62
(dp503
sg71
g475
sg64
(lp504
g57
(g78
g59
NtRp505
(dp506
g62
(dp507
g82
g83
ssg71
g501
sg64
(lp508
S'applications_parent'
p509
asbag57
(g78
g59
NtRp510
(dp511
g62
(dp512
g89
g90
ssg71
g501
sg64
(lp513
S':'
asbag57
(g78
g59
NtRp514
(dp515
g62
(dp516
sg71
g501
sg64
(lp517
g57
(g58
g59
NtRp518
(dp519
g62
(dp520
g70
I4
ssg71
g514
sg64
(lp521
S'/home/manu/proyectos/web2py'
p522
asbasbasbag57
(g73
g59
NtRp523
(dp524
g62
(dp525
sg71
g475
sg64
(lp526
g57
(g78
g59
NtRp527
(dp528
g62
(dp529
g82
g83
ssg71
g523
sg64
(lp530
S'cmd_args'
p531
asbag57
(g78
g59
NtRp532
(dp533
g62
(dp534
g89
g90
ssg71
g523
sg64
(lp535
S':'
asbag57
(g78
g59
NtRp536
(dp537
g62
(dp538
sg71
g523
sg64
(lp539
g57
(g58
g59
NtRp540
(dp541
g62
(dp542
g70
I4
ssg71
g536
sg64
(lp543
g57
(g66
g59
NtRp544
(dp545
g62
(dp546
g70
I3
ssg71
Nsg64
(lp547
sbasbasbasbag57
(g73
g59
NtRp548
(dp549
g62
(dp550
sg71
g475
sg64
(lp551
g57
(g78
g59
NtRp552
(dp553
g62
(dp554
g82
g83
ssg71
g548
sg64
(lp555
S'cmd_options'
p556
asbag57
(g78
g59
NtRp557
(dp558
g62
(dp559
g89
g90
ssg71
g548
sg64
(lp560
S':'
asbag57
(g78
g59
NtRp561
(dp562
g62
(dp563
sg71
g548
sg64
(lp564
g57
(g58
g59
NtRp565
(dp566
g62
(dp567
g70
I4
ssg71
g561
sg64
(lp568
S"<Values at 0xa29eeac: {'verbose': False, 'ip': '127.0.0.1', 'with_scheduler': False, 'ips': ['127.0.1.1'], 'shutdown_timeout': 5, 'taskbar': False, 'port': 8000, 'maxthreads': None, 'softcron': False, 'server_name': 'pcmanu', 'bpython': False, 'nogui': False, 'pid_filename': 'httpserver.pid', 'extcron': False, 'runcron': False, 'run_system_tests': False, 'test': None, 'folder': '/home/manu/proyectos/web2py', 'config': '', 'import_models': False, 'winservice': '', 'shell': None, 'run': '', 'log_filename': 'httpserver.log', 'debuglevel': 30, 'args': [''], 'socket_timeout': 5, 'ssl_ca_certificate': None, 'scheduler': None, 'profiler_filename': None, 'ssl_private_key': '', 'scheduler_groups': None, 'password': 'manu', 'request_queue_size': 5, 'ssl_certificate': '', 'cronjob': False, 'numthreads': None, 'quiet': False, 'interfaces': None, 'minthreads': None, 'timeout': 10, 'plain': False, 'nobanner': False}>"
p569
asbasbasbag57
(g73
g59
NtRp570
(dp571
g62
(dp572
sg71
g475
sg64
(lp573
g57
(g78
g59
NtRp574
(dp575
g62
(dp576
g82
g83
ssg71
g570
sg64
(lp577
S'db_sessions'
p578
asbag57
(g78
g59
NtRp579
(dp580
g62
(dp581
g89
g90
ssg71
g570
sg64
(lp582
S':'
asbag57
(g78
g59
NtRp583
(dp584
g62
(dp585
sg71
g570
sg64
(lp586
g57
(g58
g59
NtRp587
(dp588
g62
(dp589
g70
I4
ssg71
g583
sg64
(lp590
S'set([])'
p591
asbasbasbag57
(g73
g59
NtRp592
(dp593
g62
(dp594
sg71
g475
sg64
(lp595
g57
(g78
g59
NtRp596
(dp597
g62
(dp598
g82
g83
ssg71
g592
sg64
(lp599
S'debugging'
p600
asbag57
(g78
g59
NtRp601
(dp602
g62
(dp603
g89
g90
ssg71
g592
sg64
(lp604
S':'
asbag57
(g78
g59
NtRp605
(dp606
g62
(dp607
sg71
g592
sg64
(lp608
g57
(g58
g59
NtRp609
(dp610
g62
(dp611
g70
I4
ssg71
g605
sg64
(lp612
g100
asbasbasbag57
(g73
g59
NtRp613
(dp614
g62
(dp615
sg71
g475
sg64
(lp616
g57
(g78
g59
NtRp617
(dp618
g62
(dp619
g82
g83
ssg71
g613
sg64
(lp620
S'gluon_parent'
p621
asbag57
(g78
g59
NtRp622
(dp623
g62
(dp624
g89
g90
ssg71
g613
sg64
(lp625
S':'
asbag57
(g78
g59
NtRp626
(dp627
g62
(dp628
sg71
g613
sg64
(lp629
g57
(g58
g59
NtRp630
(dp631
g62
(dp632
g70
I4
ssg71
g626
sg64
(lp633
S'/home/manu/proyectos/web2py'
p634
asbasbasbag57
(g73
g59
NtRp635
(dp636
g62
(dp637
sg71
g475
sg64
(lp638
g57
(g78
g59
NtRp639
(dp640
g62
(dp641
g82
g83
ssg71
g635
sg64
(lp642
S'http_accept'
p643
asbag57
(g78
g59
NtRp644
(dp645
g62
(dp646
g89
g90
ssg71
g635
sg64
(lp647
S':'
asbag57
(g78
g59
NtRp648
(dp649
g62
(dp650
sg71
g635
sg64
(lp651
g57
(g58
g59
NtRp652
(dp653
g62
(dp654
g70
I4
ssg71
g648
sg64
(lp655
S'text/html,application/xhtml+xml,application/xml;q=0.9,*/*;q=0.8'
p656
asbasbasbag57
(g73
g59
NtRp657
(dp658
g62
(dp659
sg71
g475
sg64
(lp660
g57
(g78
g59
NtRp661
(dp662
g62
(dp663
g82
g83
ssg71
g657
sg64
(lp664
S'http_accept_charset'
p665
asbag57
(g78
g59
NtRp666
(dp667
g62
(dp668
g89
g90
ssg71
g657
sg64
(lp669
S':'
asbag57
(g78
g59
NtRp670
(dp671
g62
(dp672
sg71
g657
sg64
(lp673
g57
(g58
g59
NtRp674
(dp675
g62
(dp676
g70
I4
ssg71
g670
sg64
(lp677
S'ISO-8859-1,utf-8;q=0.7,*;q=0.7'
p678
asbasbasbag57
(g73
g59
NtRp679
(dp680
g62
(dp681
sg71
g475
sg64
(lp682
g57
(g78
g59
NtRp683
(dp684
g62
(dp685
g82
g83
ssg71
g679
sg64
(lp686
S'http_accept_encoding'
p687
asbag57
(g78
g59
NtRp688
(dp689
g62
(dp690
g89
g90
ssg71
g679
sg64
(lp691
S':'
asbag57
(g78
g59
NtRp692
(dp693
g62
(dp694
sg71
g679
sg64
(lp695
g57
(g58
g59
NtRp696
(dp697
g62
(dp698
g70
I4
ssg71
g692
sg64
(lp699
S'gzip, deflate'
p700
asbasbasbag57
(g73
g59
NtRp701
(dp702
g62
(dp703
sg71
g475
sg64
(lp704
g57
(g78
g59
NtRp705
(dp706
g62
(dp707
g82
g83
ssg71
g701
sg64
(lp708
S'http_accept_language'
p709
asbag57
(g78
g59
NtRp710
(dp711
g62
(dp712
g89
g90
ssg71
g701
sg64
(lp713
S':'
asbag57
(g78
g59
NtRp714
(dp715
g62
(dp716
sg71
g701
sg64
(lp717
g57
(g58
g59
NtRp718
(dp719
g62
(dp720
g70
I4
ssg71
g714
sg64
(lp721
S'es-es,es;q=0.8,en-us;q=0.5,en;q=0.3'
p722
asbasbasbag57
(g73
g59
NtRp723
(dp724
g62
(dp725
sg71
g475
sg64
(lp726
g57
(g78
g59
NtRp727
(dp728
g62
(dp729
g82
g83
ssg71
g723
sg64
(lp730
S'http_cache_control'
p731
asbag57
(g78
g59
NtRp732
(dp733
g62
(dp734
g89
g90
ssg71
g723
sg64
(lp735
S':'
asbag57
(g78
g59
NtRp736
(dp737
g62
(dp738
sg71
g723
sg64
(lp739
g57
(g58
g59
NtRp740
(dp741
g62
(dp742
g70
I4
ssg71
g736
sg64
(lp743
S'max-age=0'
p744
asbasbasbag57
(g73
g59
NtRp745
(dp746
g62
(dp747
sg71
g475
sg64
(lp748
g57
(g78
g59
NtRp749
(dp750
g62
(dp751
g82
g83
ssg71
g745
sg64
(lp752
S'http_connection'
p753
asbag57
(g78
g59
NtRp754
(dp755
g62
(dp756
g89
g90
ssg71
g745
sg64
(lp757
S':'
asbag57
(g78
g59
NtRp758
(dp759
g62
(dp760
sg71
g745
sg64
(lp761
g57
(g58
g59
NtRp762
(dp763
g62
(dp764
g70
I4
ssg71
g758
sg64
(lp765
S'keep-alive'
p766
asbasbasbag57
(g73
g59
NtRp767
(dp768
g62
(dp769
sg71
g475
sg64
(lp770
g57
(g78
g59
NtRp771
(dp772
g62
(dp773
g82
g83
ssg71
g767
sg64
(lp774
S'http_cookie'
p775
asbag57
(g78
g59
NtRp776
(dp777
g62
(dp778
g89
g90
ssg71
g767
sg64
(lp779
S':'
asbag57
(g78
g59
NtRp780
(dp781
g62
(dp782
sg71
g767
sg64
(lp783
g57
(g58
g59
NtRp784
(dp785
g62
(dp786
g70
I4
ssg71
g780
sg64
(lp787
S'session_id_controlies=127.0.0.1-6177c4d9-9791-4517-8f7c-bd3585dbb683'
p788
asbasbasbag57
(g73
g59
NtRp789
(dp790
g62
(dp791
sg71
g475
sg64
(lp792
g57
(g78
g59
NtRp793
(dp794
g62
(dp795
g82
g83
ssg71
g789
sg64
(lp796
S'http_host'
p797
asbag57
(g78
g59
NtRp798
(dp799
g62
(dp800
g89
g90
ssg71
g789
sg64
(lp801
S':'
asbag57
(g78
g59
NtRp802
(dp803
g62
(dp804
sg71
g789
sg64
(lp805
g57
(g58
g59
NtRp806
(dp807
g62
(dp808
g70
I4
ssg71
g802
sg64
(lp809
S'localhost:8000'
p810
asbasbasbag57
(g73
g59
NtRp811
(dp812
g62
(dp813
sg71
g475
sg64
(lp814
g57
(g78
g59
NtRp815
(dp816
g62
(dp817
g82
g83
ssg71
g811
sg64
(lp818
S'http_user_agent'
p819
asbag57
(g78
g59
NtRp820
(dp821
g62
(dp822
g89
g90
ssg71
g811
sg64
(lp823
S':'
asbag57
(g78
g59
NtRp824
(dp825
g62
(dp826
sg71
g811
sg64
(lp827
g57
(g58
g59
NtRp828
(dp829
g62
(dp830
g70
I4
ssg71
g824
sg64
(lp831
S'Mozilla/5.0 (X11; Linux i686; rv:9.0.1) Gecko/20100101 Firefox/9.0.1'
p832
asbasbasbag57
(g73
g59
NtRp833
(dp834
g62
(dp835
sg71
g475
sg64
(lp836
g57
(g78
g59
NtRp837
(dp838
g62
(dp839
g82
g83
ssg71
g833
sg64
(lp840
S'is_jython'
p841
asbag57
(g78
g59
NtRp842
(dp843
g62
(dp844
g89
g90
ssg71
g833
sg64
(lp845
S':'
asbag57
(g78
g59
NtRp846
(dp847
g62
(dp848
sg71
g833
sg64
(lp849
g57
(g58
g59
NtRp850
(dp851
g62
(dp852
g70
I4
ssg71
g846
sg64
(lp853
g100
asbasbasbag57
(g73
g59
NtRp854
(dp855
g62
(dp856
sg71
g475
sg64
(lp857
g57
(g78
g59
NtRp858
(dp859
g62
(dp860
g82
g83
ssg71
g854
sg64
(lp861
S'is_pypy'
p862
asbag57
(g78
g59
NtRp863
(dp864
g62
(dp865
g89
g90
ssg71
g854
sg64
(lp866
S':'
asbag57
(g78
g59
NtRp867
(dp868
g62
(dp869
sg71
g854
sg64
(lp870
g57
(g58
g59
NtRp871
(dp872
g62
(dp873
g70
I4
ssg71
g867
sg64
(lp874
g100
asbasbasbag57
(g73
g59
NtRp875
(dp876
g62
(dp877
sg71
g475
sg64
(lp878
g57
(g78
g59
NtRp879
(dp880
g62
(dp881
g82
g83
ssg71
g875
sg64
(lp882
S'local_hosts'
p883
asbag57
(g78
g59
NtRp884
(dp885
g62
(dp886
g89
g90
ssg71
g875
sg64
(lp887
S':'
asbag57
(g78
g59
NtRp888
(dp889
g62
(dp890
sg71
g875
sg64
(lp891
g57
(g58
g59
NtRp892
(dp893
g62
(dp894
g70
I4
ssg71
g888
sg64
(lp895
g57
(g66
g59
NtRp896
(dp897
g62
(dp898
g70
I3
ssg71
Nsg64
(lp899
g57
(g73
g59
NtRp900
(dp901
g62
(dp902
sg71
g896
sg64
(lp903
g57
(g78
g59
NtRp904
(dp905
g62
(dp906
sg71
g900
sg64
(lp907
g57
(g58
g59
NtRp908
(dp909
g62
(dp910
g70
I3
ssg71
g904
sg64
(lp911
S'127.0.0.1'
p912
asbasbasbag57
(g73
g59
NtRp913
(dp914
g62
(dp915
sg71
g896
sg64
(lp916
g57
(g78
g59
NtRp917
(dp918
g62
(dp919
sg71
g913
sg64
(lp920
g57
(g58
g59
NtRp921
(dp922
g62
(dp923
g70
I3
ssg71
g917
sg64
(lp924
S'::ffff:127.0.0.1'
p925
asbasbasbag57
(g73
g59
NtRp926
(dp927
g62
(dp928
sg71
g896
sg64
(lp929
g57
(g78
g59
NtRp930
(dp931
g62
(dp932
sg71
g926
sg64
(lp933
g57
(g58
g59
NtRp934
(dp935
g62
(dp936
g70
I3
ssg71
g930
sg64
(lp937
S'pcmanu'
p938
asbasbasbag57
(g73
g59
NtRp939
(dp940
g62
(dp941
sg71
g896
sg64
(lp942
g57
(g78
g59
NtRp943
(dp944
g62
(dp945
sg71
g939
sg64
(lp946
g57
(g58
g59
NtRp947
(dp948
g62
(dp949
g70
I3
ssg71
g943
sg64
(lp950
S'pcmanu'
p951
asbasbasbag57
(g73
g59
NtRp952
(dp953
g62
(dp954
sg71
g896
sg64
(lp955
g57
(g78
g59
NtRp956
(dp957
g62
(dp958
sg71
g952
sg64
(lp959
g57
(g58
g59
NtRp960
(dp961
g62
(dp962
g70
I3
ssg71
g956
sg64
(lp963
S'127.0.1.1'
p964
asbasbasbasbasbasbasbag57
(g73
g59
NtRp965
(dp966
g62
(dp967
sg71
g475
sg64
(lp968
g57
(g78
g59
NtRp969
(dp970
g62
(dp971
g82
g83
ssg71
g965
sg64
(lp972
S'path_info'
p973
asbag57
(g78
g59
NtRp974
(dp975
g62
(dp976
g89
g90
ssg71
g965
sg64
(lp977
S':'
asbag57
(g78
g59
NtRp978
(dp979
g62
(dp980
sg71
g965
sg64
(lp981
g57
(g58
g59
NtRp982
(dp983
g62
(dp984
g70
I4
ssg71
g978
sg64
(lp985
S'/controlies/'
p986
asbasbasbag57
(g73
g59
NtRp987
(dp988
g62
(dp989
sg71
g475
sg64
(lp990
g57
(g78
g59
NtRp991
(dp992
g62
(dp993
g82
g83
ssg71
g987
sg64
(lp994
S'query_string'
p995
asbag57
(g78
g59
NtRp996
(dp997
g62
(dp998
g89
g90
ssg71
g987
sg64
(lp999
S':'
asbag57
(g78
g59
NtRp1000
(dp1001
g62
(dp1002
sg71
g987
sg64
(lp1003
g57
(g58
g59
NtRp1004
(dp1005
g62
(dp1006
g70
I4
ssg71
g1000
sg64
(lp1007
S''
asbasbasbag57
(g73
g59
NtRp1008
(dp1009
g62
(dp1010
sg71
g475
sg64
(lp1011
g57
(g78
g59
NtRp1012
(dp1013
g62
(dp1014
g82
g83
ssg71
g1008
sg64
(lp1015
S'remote_addr'
p1016
asbag57
(g78
g59
NtRp1017
(dp1018
g62
(dp1019
g89
g90
ssg71
g1008
sg64
(lp1020
S':'
asbag57
(g78
g59
NtRp1021
(dp1022
g62
(dp1023
sg71
g1008
sg64
(lp1024
g57
(g58
g59
NtRp1025
(dp1026
g62
(dp1027
g70
I4
ssg71
g1021
sg64
(lp1028
g212
asbasbasbag57
(g73
g59
NtRp1029
(dp1030
g62
(dp1031
sg71
g475
sg64
(lp1032
g57
(g78
g59
NtRp1033
(dp1034
g62
(dp1035
g82
g83
ssg71
g1029
sg64
(lp1036
S'remote_port'
p1037
asbag57
(g78
g59
NtRp1038
(dp1039
g62
(dp1040
g89
g90
ssg71
g1029
sg64
(lp1041
S':'
asbag57
(g78
g59
NtRp1042
(dp1043
g62
(dp1044
sg71
g1029
sg64
(lp1045
g57
(g58
g59
NtRp1046
(dp1047
g62
(dp1048
g70
I4
ssg71
g1042
sg64
(lp1049
S'51031'
p1050
asbasbasbag57
(g73
g59
NtRp1051
(dp1052
g62
(dp1053
sg71
g475
sg64
(lp1054
g57
(g78
g59
NtRp1055
(dp1056
g62
(dp1057
g82
g83
ssg71
g1051
sg64
(lp1058
S'request_method'
p1059
asbag57
(g78
g59
NtRp1060
(dp1061
g62
(dp1062
g89
g90
ssg71
g1051
sg64
(lp1063
S':'
asbag57
(g78
g59
NtRp1064
(dp1065
g62
(dp1066
sg71
g1051
sg64
(lp1067
g57
(g58
g59
NtRp1068
(dp1069
g62
(dp1070
g70
I4
ssg71
g1064
sg64
(lp1071
S'GET'
p1072
asbasbasbag57
(g73
g59
NtRp1073
(dp1074
g62
(dp1075
sg71
g475
sg64
(lp1076
g57
(g78
g59
NtRp1077
(dp1078
g62
(dp1079
g82
g83
ssg71
g1073
sg64
(lp1080
S'request_uri'
p1081
asbag57
(g78
g59
NtRp1082
(dp1083
g62
(dp1084
g89
g90
ssg71
g1073
sg64
(lp1085
S':'
asbag57
(g78
g59
NtRp1086
(dp1087
g62
(dp1088
sg71
g1073
sg64
(lp1089
g57
(g58
g59
NtRp1090
(dp1091
g62
(dp1092
g70
I4
ssg71
g1086
sg64
(lp1093
g986
asbasbasbag57
(g73
g59
NtRp1094
(dp1095
g62
(dp1096
sg71
g475
sg64
(lp1097
g57
(g78
g59
NtRp1098
(dp1099
g62
(dp1100
g82
g83
ssg71
g1094
sg64
(lp1101
S'script_name'
p1102
asbag57
(g78
g59
NtRp1103
(dp1104
g62
(dp1105
g89
g90
ssg71
g1094
sg64
(lp1106
S':'
asbag57
(g78
g59
NtRp1107
(dp1108
g62
(dp1109
sg71
g1094
sg64
(lp1110
g57
(g58
g59
NtRp1111
(dp1112
g62
(dp1113
g70
I4
ssg71
g1107
sg64
(lp1114
S''
asbasbasbag57
(g73
g59
NtRp1115
(dp1116
g62
(dp1117
sg71
g475
sg64
(lp1118
g57
(g78
g59
NtRp1119
(dp1120
g62
(dp1121
g82
g83
ssg71
g1115
sg64
(lp1122
S'server_name'
p1123
asbag57
(g78
g59
NtRp1124
(dp1125
g62
(dp1126
g89
g90
ssg71
g1115
sg64
(lp1127
S':'
asbag57
(g78
g59
NtRp1128
(dp1129
g62
(dp1130
sg71
g1115
sg64
(lp1131
g57
(g58
g59
NtRp1132
(dp1133
g62
(dp1134
g70
I4
ssg71
g1128
sg64
(lp1135
g951
asbasbasbag57
(g73
g59
NtRp1136
(dp1137
g62
(dp1138
sg71
g475
sg64
(lp1139
g57
(g78
g59
NtRp1140
(dp1141
g62
(dp1142
g82
g83
ssg71
g1136
sg64
(lp1143
S'server_port'
p1144
asbag57
(g78
g59
NtRp1145
(dp1146
g62
(dp1147
g89
g90
ssg71
g1136
sg64
(lp1148
S':'
asbag57
(g78
g59
NtRp1149
(dp1150
g62
(dp1151
sg71
g1136
sg64
(lp1152
g57
(g58
g59
NtRp1153
(dp1154
g62
(dp1155
g70
I4
ssg71
g1149
sg64
(lp1156
S'8000'
p1157
asbasbasbag57
(g73
g59
NtRp1158
(dp1159
g62
(dp1160
sg71
g475
sg64
(lp1161
g57
(g78
g59
NtRp1162
(dp1163
g62
(dp1164
g82
g83
ssg71
g1158
sg64
(lp1165
S'server_protocol'
p1166
asbag57
(g78
g59
NtRp1167
(dp1168
g62
(dp1169
g89
g90
ssg71
g1158
sg64
(lp1170
S':'
asbag57
(g78
g59
NtRp1171
(dp1172
g62
(dp1173
sg71
g1158
sg64
(lp1174
g57
(g58
g59
NtRp1175
(dp1176
g62
(dp1177
g70
I4
ssg71
g1171
sg64
(lp1178
S'HTTP/1.1'
p1179
asbasbasbag57
(g73
g59
NtRp1180
(dp1181
g62
(dp1182
sg71
g475
sg64
(lp1183
g57
(g78
g59
NtRp1184
(dp1185
g62
(dp1186
g82
g83
ssg71
g1180
sg64
(lp1187
S'server_software'
p1188
asbag57
(g78
g59
NtRp1189
(dp1190
g62
(dp1191
g89
g90
ssg71
g1180
sg64
(lp1192
S':'
asbag57
(g78
g59
NtRp1193
(dp1194
g62
(dp1195
sg71
g1180
sg64
(lp1196
g57
(g58
g59
NtRp1197
(dp1198
g62
(dp1199
g70
I4
ssg71
g1193
sg64
(lp1200
S'Rocket 1.2.5'
p1201
asbasbasbag57
(g73
g59
NtRp1202
(dp1203
g62
(dp1204
sg71
g475
sg64
(lp1205
g57
(g78
g59
NtRp1206
(dp1207
g62
(dp1208
g82
g83
ssg71
g1202
sg64
(lp1209
S'web2py_path'
p1210
asbag57
(g78
g59
NtRp1211
(dp1212
g62
(dp1213
g89
g90
ssg71
g1202
sg64
(lp1214
S':'
asbag57
(g78
g59
NtRp1215
(dp1216
g62
(dp1217
sg71
g1202
sg64
(lp1218
g57
(g58
g59
NtRp1219
(dp1220
g62
(dp1221
g70
I4
ssg71
g1215
sg64
(lp1222
g522
asbasbasbag57
(g73
g59
NtRp1223
(dp1224
g62
(dp1225
sg71
g475
sg64
(lp1226
g57
(g78
g59
NtRp1227
(dp1228
g62
(dp1229
g82
g83
ssg71
g1223
sg64
(lp1230
S'web2py_version'
p1231
asbag57
(g78
g59
NtRp1232
(dp1233
g62
(dp1234
g89
g90
ssg71
g1223
sg64
(lp1235
S':'
asbag57
(g78
g59
NtRp1236
(dp1237
g62
(dp1238
sg71
g1223
sg64
(lp1239
g57
(g58
g59
NtRp1240
(dp1241
g62
(dp1242
g70
I4
ssg71
g1236
sg64
(lp1243
g57
(g66
g59
NtRp1244
(dp1245
g62
(dp1246
g70
I3
ssg71
Nsg64
(lp1247
g57
(g73
g59
NtRp1248
(dp1249
g62
(dp1250
sg71
g1244
sg64
(lp1251
g57
(g78
g59
NtRp1252
(dp1253
g62
(dp1254
sg71
g1248
sg64
(lp1255
g57
(g58
g59
NtRp1256
(dp1257
g62
(dp1258
g70
I3
ssg71
g1252
sg64
(lp1259
S'2'
asbasbasbag57
(g73
g59
NtRp1260
(dp1261
g62
(dp1262
sg71
g1244
sg64
(lp1263
g57
(g78
g59
NtRp1264
(dp1265
g62
(dp1266
sg71
g1260
sg64
(lp1267
g57
(g58
g59
NtRp1268
(dp1269
g62
(dp1270
g70
I3
ssg71
g1264
sg64
(lp1271
S'2'
asbasbasbag57
(g73
g59
NtRp1272
(dp1273
g62
(dp1274
sg71
g1244
sg64
(lp1275
g57
(g78
g59
NtRp1276
(dp1277
g62
(dp1278
sg71
g1272
sg64
(lp1279
g57
(g58
g59
NtRp1280
(dp1281
g62
(dp1282
g70
I3
ssg71
g1276
sg64
(lp1283
S'1'
asbasbasbag57
(g73
g59
NtRp1284
(dp1285
g62
(dp1286
sg71
g1244
sg64
(lp1287
g57
(g78
g59
NtRp1288
(dp1289
g62
(dp1290
sg71
g1284
sg64
(lp1291
g57
(g58
g59
NtRp1292
(dp1293
g62
(dp1294
g70
I3
ssg71
g1288
sg64
(lp1295
S'datetime.datetime(2012, 10, 21, 16, 57, 4)'
p1296
asbasbasbag57
(g73
g59
NtRp1297
(dp1298
g62
(dp1299
sg71
g1244
sg64
(lp1300
g57
(g78
g59
NtRp1301
(dp1302
g62
(dp1303
sg71
g1297
sg64
(lp1304
g57
(g58
g59
NtRp1305
(dp1306
g62
(dp1307
g70
I3
ssg71
g1301
sg64
(lp1308
S'stable'
p1309
asbasbasbasbasbasbasbag57
(g73
g59
NtRp1310
(dp1311
g62
(dp1312
sg71
g475
sg64
(lp1313
g57
(g78
g59
NtRp1314
(dp1315
g62
(dp1316
g82
g83
ssg71
g1310
sg64
(lp1317
S'wsgi_errors'
p1318
asbag57
(g78
g59
NtRp1319
(dp1320
g62
(dp1321
g89
g90
ssg71
g1310
sg64
(lp1322
S':'
asbag57
(g78
g59
NtRp1323
(dp1324
g62
(dp1325
sg71
g1310
sg64
(lp1326
g57
(g58
g59
NtRp1327
(dp1328
g62
(dp1329
g70
I4
ssg71
g1323
sg64
(lp1330
S"<open file '<stderr>', mode 'w' at 0xb739c0d0>"
p1331
asbasbasbag57
(g73
g59
NtRp1332
(dp1333
g62
(dp1334
sg71
g475
sg64
(lp1335
g57
(g78
g59
NtRp1336
(dp1337
g62
(dp1338
g82
g83
ssg71
g1332
sg64
(lp1339
S'wsgi_file_wrapper'
p1340
asbag57
(g78
g59
NtRp1341
(dp1342
g62
(dp1343
g89
g90
ssg71
g1332
sg64
(lp1344
S':'
asbag57
(g78
g59
NtRp1345
(dp1346
g62
(dp1347
sg71
g1332
sg64
(lp1348
g57
(g58
g59
NtRp1349
(dp1350
g62
(dp1351
g70
I4
ssg71
g1345
sg64
(lp1352
S'<class wsgiref.util.FileWrapper at 0xa24bd1c>'
p1353
asbasbasbag57
(g73
g59
NtRp1354
(dp1355
g62
(dp1356
sg71
g475
sg64
(lp1357
g57
(g78
g59
NtRp1358
(dp1359
g62
(dp1360
g82
g83
ssg71
g1354
sg64
(lp1361
S'wsgi_input'
p1362
asbag57
(g78
g59
NtRp1363
(dp1364
g62
(dp1365
g89
g90
ssg71
g1354
sg64
(lp1366
S':'
asbag57
(g78
g59
NtRp1367
(dp1368
g62
(dp1369
sg71
g1354
sg64
(lp1370
g57
(g58
g59
NtRp1371
(dp1372
g62
(dp1373
g70
I4
ssg71
g1367
sg64
(lp1374
S'<socket._fileobject object at 0xa73222c>'
p1375
asbasbasbag57
(g73
g59
NtRp1376
(dp1377
g62
(dp1378
sg71
g475
sg64
(lp1379
g57
(g78
g59
NtRp1380
(dp1381
g62
(dp1382
g82
g83
ssg71
g1376
sg64
(lp1383
S'wsgi_multiprocess'
p1384
asbag57
(g78
g59
NtRp1385
(dp1386
g62
(dp1387
g89
g90
ssg71
g1376
sg64
(lp1388
S':'
asbag57
(g78
g59
NtRp1389
(dp1390
g62
(dp1391
sg71
g1376
sg64
(lp1392
g57
(g58
g59
NtRp1393
(dp1394
g62
(dp1395
g70
I4
ssg71
g1389
sg64
(lp1396
g100
asbasbasbag57
(g73
g59
NtRp1397
(dp1398
g62
(dp1399
sg71
g475
sg64
(lp1400
g57
(g78
g59
NtRp1401
(dp1402
g62
(dp1403
g82
g83
ssg71
g1397
sg64
(lp1404
S'wsgi_multithread'
p1405
asbag57
(g78
g59
NtRp1406
(dp1407
g62
(dp1408
g89
g90
ssg71
g1397
sg64
(lp1409
S':'
asbag57
(g78
g59
NtRp1410
(dp1411
g62
(dp1412
sg71
g1397
sg64
(lp1413
g57
(g58
g59
NtRp1414
(dp1415
g62
(dp1416
g70
I4
ssg71
g1410
sg64
(lp1417
S'True'
p1418
asbasbasbag57
(g73
g59
NtRp1419
(dp1420
g62
(dp1421
sg71
g475
sg64
(lp1422
g57
(g78
g59
NtRp1423
(dp1424
g62
(dp1425
g82
g83
ssg71
g1419
sg64
(lp1426
S'wsgi_run_once'
p1427
asbag57
(g78
g59
NtRp1428
(dp1429
g62
(dp1430
g89
g90
ssg71
g1419
sg64
(lp1431
S':'
asbag57
(g78
g59
NtRp1432
(dp1433
g62
(dp1434
sg71
g1419
sg64
(lp1435
g57
(g58
g59
NtRp1436
(dp1437
g62
(dp1438
g70
I4
ssg71
g1432
sg64
(lp1439
g100
asbasbasbag57
(g73
g59
NtRp1440
(dp1441
g62
(dp1442
sg71
g475
sg64
(lp1443
g57
(g78
g59
NtRp1444
(dp1445
g62
(dp1446
g82
g83
ssg71
g1440
sg64
(lp1447
S'wsgi_url_scheme'
p1448
asbag57
(g78
g59
NtRp1449
(dp1450
g62
(dp1451
g89
g90
ssg71
g1440
sg64
(lp1452
S':'
asbag57
(g78
g59
NtRp1453
(dp1454
g62
(dp1455
sg71
g1440
sg64
(lp1456
g57
(g58
g59
NtRp1457
(dp1458
g62
(dp1459
g70
I4
ssg71
g1453
sg64
(lp1460
S'http'
p1461
asbasbasbag57
(g73
g59
NtRp1462
(dp1463
g62
(dp1464
sg71
g475
sg64
(lp1465
g57
(g78
g59
NtRp1466
(dp1467
g62
(dp1468
g82
g83
ssg71
g1462
sg64
(lp1469
S'wsgi_version'
p1470
asbag57
(g78
g59
NtRp1471
(dp1472
g62
(dp1473
g89
g90
ssg71
g1462
sg64
(lp1474
S':'
asbag57
(g78
g59
NtRp1475
(dp1476
g62
(dp1477
sg71
g1462
sg64
(lp1478
g57
(g58
g59
NtRp1479
(dp1480
g62
(dp1481
g70
I4
ssg71
g1475
sg64
(lp1482
g57
(g66
g59
NtRp1483
(dp1484
g62
(dp1485
g70
I3
ssg71
Nsg64
(lp1486
g57
(g73
g59
NtRp1487
(dp1488
g62
(dp1489
sg71
g1483
sg64
(lp1490
g57
(g78
g59
NtRp1491
(dp1492
g62
(dp1493
sg71
g1487
sg64
(lp1494
g57
(g58
g59
NtRp1495
(dp1496
g62
(dp1497
g70
I3
ssg71
g1491
sg64
(lp1498
S'1'
asbasbasbag57
(g73
g59
NtRp1499
(dp1500
g62
(dp1501
sg71
g1483
sg64
(lp1502
g57
(g78
g59
NtRp1503
(dp1504
g62
(dp1505
sg71
g1499
sg64
(lp1506
g57
(g58
g59
NtRp1507
(dp1508
g62
(dp1509
g70
I3
ssg71
g1503
sg64
(lp1510
S'0'
asbasbasbasbasbasbasbasbasbasbasbag57
(g73
g59
NtRp1511
(dp1512
g62
(dp1513
sg71
g67
sg64
(lp1514
g57
(g78
g59
NtRp1515
(dp1516
g62
(dp1517
g82
g83
ssg71
g1511
sg64
(lp1518
S'extension'
p1519
asbag57
(g78
g59
NtRp1520
(dp1521
g62
(dp1522
g89
g90
ssg71
g1511
sg64
(lp1523
S':'
asbag57
(g78
g59
NtRp1524
(dp1525
g62
(dp1526
sg71
g1511
sg64
(lp1527
g57
(g58
g59
NtRp1528
(dp1529
g62
(dp1530
g70
I5
ssg71
g1524
sg64
(lp1531
S'html'
p1532
asbasbasbag57
(g73
g59
NtRp1533
(dp1534
g62
(dp1535
sg71
g67
sg64
(lp1536
g57
(g78
g59
NtRp1537
(dp1538
g62
(dp1539
g82
g83
ssg71
g1533
sg64
(lp1540
S'folder'
p1541
asbag57
(g78
g59
NtRp1542
(dp1543
g62
(dp1544
g89
g90
ssg71
g1533
sg64
(lp1545
S':'
asbag57
(g78
g59
NtRp1546
(dp1547
g62
(dp1548
sg71
g1533
sg64
(lp1549
g57
(g58
g59
NtRp1550
(dp1551
g62
(dp1552
g70
I5
ssg71
g1546
sg64
(lp1553
S'/home/manu/proyectos/web2py/applications/controlies/'
p1554
asbasbasbag57
(g73
g59
NtRp1555
(dp1556
g62
(dp1557
sg71
g67
sg64
(lp1558
g57
(g78
g59
NtRp1559
(dp1560
g62
(dp1561
g82
g83
ssg71
g1555
sg64
(lp1562
S'function'
p1563
asbag57
(g78
g59
NtRp1564
(dp1565
g62
(dp1566
g89
g90
ssg71
g1555
sg64
(lp1567
S':'
asbag57
(g78
g59
NtRp1568
(dp1569
g62
(dp1570
sg71
g1555
sg64
(lp1571
g57
(g58
g59
NtRp1572
(dp1573
g62
(dp1574
g70
I5
ssg71
g1568
sg64
(lp1575
S'index'
p1576
asbasbasbag57
(g73
g59
NtRp1577
(dp1578
g62
(dp1579
sg71
g67
sg64
(lp1580
g57
(g78
g59
NtRp1581
(dp1582
g62
(dp1583
g82
g83
ssg71
g1577
sg64
(lp1584
S'get_vars'
p1585
asbag57
(g78
g59
NtRp1586
(dp1587
g62
(dp1588
g89
g90
ssg71
g1577
sg64
(lp1589
S':'
asbag57
(g78
g59
NtRp1590
(dp1591
g62
(dp1592
sg71
g1577
sg64
(lp1593
g57
(g58
g59
NtRp1594
(dp1595
g62
(dp1596
g70
I5
ssg71
g1590
sg64
(lp1597
g57
(g66
g59
NtRp1598
(dp1599
g62
(dp1600
g70
I4
ssg71
Nsg64
(lp1601
sbasbasbasbag57
(g73
g59
NtRp1602
(dp1603
g62
(dp1604
sg71
g67
sg64
(lp1605
g57
(g78
g59
NtRp1606
(dp1607
g62
(dp1608
g82
g83
ssg71
g1602
sg64
(lp1609
S'global_settings'
p1610
asbag57
(g78
g59
NtRp1611
(dp1612
g62
(dp1613
g89
g90
ssg71
g1602
sg64
(lp1614
S':'
asbag57
(g78
g59
NtRp1615
(dp1616
g62
(dp1617
sg71
g1602
sg64
(lp1618
g57
(g58
g59
NtRp1619
(dp1620
g62
(dp1621
g70
I5
ssg71
g1615
sg64
(lp1622
g57
(g66
g59
NtRp1623
(dp1624
g62
(dp1625
g70
I4
ssg71
Nsg64
(lp1626
g57
(g73
g59
NtRp1627
(dp1628
g62
(dp1629
sg71
g1623
sg64
(lp1630
g57
(g78
g59
NtRp1631
(dp1632
g62
(dp1633
g82
g83
ssg71
g1627
sg64
(lp1634
g487
asbag57
(g78
g59
NtRp1635
(dp1636
g62
(dp1637
g89
g90
ssg71
g1627
sg64
(lp1638
S':'
asbag57
(g78
g59
NtRp1639
(dp1640
g62
(dp1641
sg71
g1627
sg64
(lp1642
g57
(g58
g59
NtRp1643
(dp1644
g62
(dp1645
g70
I4
ssg71
g1639
sg64
(lp1646
S"set(['/home/manu/proyectos/web2py/applications/controlies/', '/home/manu/proyectos/web2py/applications/web2py_book/'])"
p1647
asbasbasbag57
(g73
g59
NtRp1648
(dp1649
g62
(dp1650
sg71
g1623
sg64
(lp1651
g57
(g78
g59
NtRp1652
(dp1653
g62
(dp1654
g82
g83
ssg71
g1648
sg64
(lp1655
g509
asbag57
(g78
g59
NtRp1656
(dp1657
g62
(dp1658
g89
g90
ssg71
g1648
sg64
(lp1659
S':'
asbag57
(g78
g59
NtRp1660
(dp1661
g62
(dp1662
sg71
g1648
sg64
(lp1663
g57
(g58
g59
NtRp1664
(dp1665
g62
(dp1666
g70
I4
ssg71
g1660
sg64
(lp1667
g522
asbasbasbag57
(g73
g59
NtRp1668
(dp1669
g62
(dp1670
sg71
g1623
sg64
(lp1671
g57
(g78
g59
NtRp1672
(dp1673
g62
(dp1674
g82
g83
ssg71
g1668
sg64
(lp1675
g531
asbag57
(g78
g59
NtRp1676
(dp1677
g62
(dp1678
g89
g90
ssg71
g1668
sg64
(lp1679
S':'
asbag57
(g78
g59
NtRp1680
(dp1681
g62
(dp1682
sg71
g1668
sg64
(lp1683
g57
(g58
g59
NtRp1684
(dp1685
g62
(dp1686
g70
I4
ssg71
g1680
sg64
(lp1687
g57
(g66
g59
NtRp1688
(dp1689
g62
(dp1690
g70
I3
ssg71
Nsg64
(lp1691
sbasbasbasbag57
(g73
g59
NtRp1692
(dp1693
g62
(dp1694
sg71
g1623
sg64
(lp1695
g57
(g78
g59
NtRp1696
(dp1697
g62
(dp1698
g82
g83
ssg71
g1692
sg64
(lp1699
g556
asbag57
(g78
g59
NtRp1700
(dp1701
g62
(dp1702
g89
g90
ssg71
g1692
sg64
(lp1703
S':'
asbag57
(g78
g59
NtRp1704
(dp1705
g62
(dp1706
sg71
g1692
sg64
(lp1707
g57
(g58
g59
NtRp1708
(dp1709
g62
(dp1710
g70
I4
ssg71
g1704
sg64
(lp1711
S"<Values at 0xa29eeac: {'verbose': False, 'ip': '127.0.0.1', 'with_scheduler': False, 'ips': ['127.0.1.1'], 'shutdown_timeout': 5, 'taskbar': False, 'port': 8000, 'maxthreads': None, 'softcron': False, 'server_name': 'pcmanu', 'bpython': False, 'nogui': False, 'pid_filename': 'httpserver.pid', 'extcron': False, 'runcron': False, 'run_system_tests': False, 'test': None, 'folder': '/home/manu/proyectos/web2py', 'config': '', 'import_models': False, 'winservice': '', 'shell': None, 'run': '', 'log_filename': 'httpserver.log', 'debuglevel': 30, 'args': [''], 'socket_timeout': 5, 'ssl_ca_certificate': None, 'scheduler': None, 'profiler_filename': None, 'ssl_private_key': '', 'scheduler_groups': None, 'password': 'manu', 'request_queue_size': 5, 'ssl_certificate': '', 'cronjob': False, 'numthreads': None, 'quiet': False, 'interfaces': None, 'minthreads': None, 'timeout': 10, 'plain': False, 'nobanner': False}>"
p1712
asbasbasbag57
(g73
g59
NtRp1713
(dp1714
g62
(dp1715
sg71
g1623
sg64
(lp1716
g57
(g78
g59
NtRp1717
(dp1718
g62
(dp1719
g82
g83
ssg71
g1713
sg64
(lp1720
g578
asbag57
(g78
g59
NtRp1721
(dp1722
g62
(dp1723
g89
g90
ssg71
g1713
sg64
(lp1724
S':'
asbag57
(g78
g59
NtRp1725
(dp1726
g62
(dp1727
sg71
g1713
sg64
(lp1728
g57
(g58
g59
NtRp1729
(dp1730
g62
(dp1731
g70
I4
ssg71
g1725
sg64
(lp1732
S'set([])'
p1733
asbasbasbag57
(g73
g59
NtRp1734
(dp1735
g62
(dp1736
sg71
g1623
sg64
(lp1737
g57
(g78
g59
NtRp1738
(dp1739
g62
(dp1740
g82
g83
ssg71
g1734
sg64
(lp1741
g600
asbag57
(g78
g59
NtRp1742
(dp1743
g62
(dp1744
g89
g90
ssg71
g1734
sg64
(lp1745
S':'
asbag57
(g78
g59
NtRp1746
(dp1747
g62
(dp1748
sg71
g1734
sg64
(lp1749
g57
(g58
g59
NtRp1750
(dp1751
g62
(dp1752
g70
I4
ssg71
g1746
sg64
(lp1753
g100
asbasbasbag57
(g73
g59
NtRp1754
(dp1755
g62
(dp1756
sg71
g1623
sg64
(lp1757
g57
(g78
g59
NtRp1758
(dp1759
g62
(dp1760
g82
g83
ssg71
g1754
sg64
(lp1761
g621
asbag57
(g78
g59
NtRp1762
(dp1763
g62
(dp1764
g89
g90
ssg71
g1754
sg64
(lp1765
S':'
asbag57
(g78
g59
NtRp1766
(dp1767
g62
(dp1768
sg71
g1754
sg64
(lp1769
g57
(g58
g59
NtRp1770
(dp1771
g62
(dp1772
g70
I4
ssg71
g1766
sg64
(lp1773
g634
asbasbasbag57
(g73
g59
NtRp1774
(dp1775
g62
(dp1776
sg71
g1623
sg64
(lp1777
g57
(g78
g59
NtRp1778
(dp1779
g62
(dp1780
g82
g83
ssg71
g1774
sg64
(lp1781
g841
asbag57
(g78
g59
NtRp1782
(dp1783
g62
(dp1784
g89
g90
ssg71
g1774
sg64
(lp1785
S':'
asbag57
(g78
g59
NtRp1786
(dp1787
g62
(dp1788
sg71
g1774
sg64
(lp1789
g57
(g58
g59
NtRp1790
(dp1791
g62
(dp1792
g70
I4
ssg71
g1786
sg64
(lp1793
g100
asbasbasbag57
(g73
g59
NtRp1794
(dp1795
g62
(dp1796
sg71
g1623
sg64
(lp1797
g57
(g78
g59
NtRp1798
(dp1799
g62
(dp1800
g82
g83
ssg71
g1794
sg64
(lp1801
g862
asbag57
(g78
g59
NtRp1802
(dp1803
g62
(dp1804
g89
g90
ssg71
g1794
sg64
(lp1805
S':'
asbag57
(g78
g59
NtRp1806
(dp1807
g62
(dp1808
sg71
g1794
sg64
(lp1809
g57
(g58
g59
NtRp1810
(dp1811
g62
(dp1812
g70
I4
ssg71
g1806
sg64
(lp1813
g100
asbasbasbag57
(g73
g59
NtRp1814
(dp1815
g62
(dp1816
sg71
g1623
sg64
(lp1817
g57
(g78
g59
NtRp1818
(dp1819
g62
(dp1820
g82
g83
ssg71
g1814
sg64
(lp1821
g883
asbag57
(g78
g59
NtRp1822
(dp1823
g62
(dp1824
g89
g90
ssg71
g1814
sg64
(lp1825
S':'
asbag57
(g78
g59
NtRp1826
(dp1827
g62
(dp1828
sg71
g1814
sg64
(lp1829
g57
(g58
g59
NtRp1830
(dp1831
g62
(dp1832
g70
I4
ssg71
g1826
sg64
(lp1833
g57
(g66
g59
NtRp1834
(dp1835
g62
(dp1836
g70
I3
ssg71
Nsg64
(lp1837
g57
(g73
g59
NtRp1838
(dp1839
g62
(dp1840
sg71
g1834
sg64
(lp1841
g57
(g78
g59
NtRp1842
(dp1843
g62
(dp1844
sg71
g1838
sg64
(lp1845
g57
(g58
g59
NtRp1846
(dp1847
g62
(dp1848
g70
I3
ssg71
g1842
sg64
(lp1849
g912
asbasbasbag57
(g73
g59
NtRp1850
(dp1851
g62
(dp1852
sg71
g1834
sg64
(lp1853
g57
(g78
g59
NtRp1854
(dp1855
g62
(dp1856
sg71
g1850
sg64
(lp1857
g57
(g58
g59
NtRp1858
(dp1859
g62
(dp1860
g70
I3
ssg71
g1854
sg64
(lp1861
g925
asbasbasbag57
(g73
g59
NtRp1862
(dp1863
g62
(dp1864
sg71
g1834
sg64
(lp1865
g57
(g78
g59
NtRp1866
(dp1867
g62
(dp1868
sg71
g1862
sg64
(lp1869
g57
(g58
g59
NtRp1870
(dp1871
g62
(dp1872
g70
I3
ssg71
g1866
sg64
(lp1873
g938
asbasbasbag57
(g73
g59
NtRp1874
(dp1875
g62
(dp1876
sg71
g1834
sg64
(lp1877
g57
(g78
g59
NtRp1878
(dp1879
g62
(dp1880
sg71
g1874
sg64
(lp1881
g57
(g58
g59
NtRp1882
(dp1883
g62
(dp1884
g70
I3
ssg71
g1878
sg64
(lp1885
g951
asbasbasbag57
(g73
g59
NtRp1886
(dp1887
g62
(dp1888
sg71
g1834
sg64
(lp1889
g57
(g78
g59
NtRp1890
(dp1891
g62
(dp1892
sg71
g1886
sg64
(lp1893
g57
(g58
g59
NtRp1894
(dp1895
g62
(dp1896
g70
I3
ssg71
g1890
sg64
(lp1897
g964
asbasbasbasbasbasbasbag57
(g73
g59
NtRp1898
(dp1899
g62
(dp1900
sg71
g1623
sg64
(lp1901
g57
(g78
g59
NtRp1902
(dp1903
g62
(dp1904
g82
g83
ssg71
g1898
sg64
(lp1905
g1231
asbag57
(g78
g59
NtRp1906
(dp1907
g62
(dp1908
g89
g90
ssg71
g1898
sg64
(lp1909
S':'
asbag57
(g78
g59
NtRp1910
(dp1911
g62
(dp1912
sg71
g1898
sg64
(lp1913
g57
(g58
g59
NtRp1914
(dp1915
g62
(dp1916
g70
I4
ssg71
g1910
sg64
(lp1917
g57
(g66
g59
NtRp1918
(dp1919
g62
(dp1920
g70
I3
ssg71
Nsg64
(lp1921
g57
(g73
g59
NtRp1922
(dp1923
g62
(dp1924
sg71
g1918
sg64
(lp1925
g57
(g78
g59
NtRp1926
(dp1927
g62
(dp1928
sg71
g1922
sg64
(lp1929
g57
(g58
g59
NtRp1930
(dp1931
g62
(dp1932
g70
I3
ssg71
g1926
sg64
(lp1933
S'2'
asbasbasbag57
(g73
g59
NtRp1934
(dp1935
g62
(dp1936
sg71
g1918
sg64
(lp1937
g57
(g78
g59
NtRp1938
(dp1939
g62
(dp1940
sg71
g1934
sg64
(lp1941
g57
(g58
g59
NtRp1942
(dp1943
g62
(dp1944
g70
I3
ssg71
g1938
sg64
(lp1945
S'2'
asbasbasbag57
(g73
g59
NtRp1946
(dp1947
g62
(dp1948
sg71
g1918
sg64
(lp1949
g57
(g78
g59
NtRp1950
(dp1951
g62
(dp1952
sg71
g1946
sg64
(lp1953
g57
(g58
g59
NtRp1954
(dp1955
g62
(dp1956
g70
I3
ssg71
g1950
sg64
(lp1957
S'1'
asbasbasbag57
(g73
g59
NtRp1958
(dp1959
g62
(dp1960
sg71
g1918
sg64
(lp1961
g57
(g78
g59
NtRp1962
(dp1963
g62
(dp1964
sg71
g1958
sg64
(lp1965
g57
(g58
g59
NtRp1966
(dp1967
g62
(dp1968
g70
I3
ssg71
g1962
sg64
(lp1969
S'datetime.datetime(2012, 10, 21, 16, 57, 4)'
p1970
asbasbasbag57
(g73
g59
NtRp1971
(dp1972
g62
(dp1973
sg71
g1918
sg64
(lp1974
g57
(g78
g59
NtRp1975
(dp1976
g62
(dp1977
sg71
g1971
sg64
(lp1978
g57
(g58
g59
NtRp1979
(dp1980
g62
(dp1981
g70
I3
ssg71
g1975
sg64
(lp1982
g1309
asbasbasbasbasbasbasbasbasbasbasbag57
(g73
g59
NtRp1983
(dp1984
g62
(dp1985
sg71
g67
sg64
(lp1986
g57
(g78
g59
NtRp1987
(dp1988
g62
(dp1989
g82
g83
ssg71
g1983
sg64
(lp1990
S'is_https'
p1991
asbag57
(g78
g59
NtRp1992
(dp1993
g62
(dp1994
g89
g90
ssg71
g1983
sg64
(lp1995
S':'
asbag57
(g78
g59
NtRp1996
(dp1997
g62
(dp1998
sg71
g1983
sg64
(lp1999
g57
(g58
g59
NtRp2000
(dp2001
g62
(dp2002
g70
I5
ssg71
g1996
sg64
(lp2003
g100
asbasbasbag57
(g73
g59
NtRp2004
(dp2005
g62
(dp2006
sg71
g67
sg64
(lp2007
g57
(g78
g59
NtRp2008
(dp2009
g62
(dp2010
g82
g83
ssg71
g2004
sg64
(lp2011
S'is_local'
p2012
asbag57
(g78
g59
NtRp2013
(dp2014
g62
(dp2015
g89
g90
ssg71
g2004
sg64
(lp2016
S':'
asbag57
(g78
g59
NtRp2017
(dp2018
g62
(dp2019
sg71
g2004
sg64
(lp2020
g57
(g58
g59
NtRp2021
(dp2022
g62
(dp2023
g70
I5
ssg71
g2017
sg64
(lp2024
g1418
asbasbasbag57
(g73
g59
NtRp2025
(dp2026
g62
(dp2027
sg71
g67
sg64
(lp2028
g57
(g78
g59
NtRp2029
(dp2030
g62
(dp2031
g82
g83
ssg71
g2025
sg64
(lp2032
S'is_restful'
p2033
asbag57
(g78
g59
NtRp2034
(dp2035
g62
(dp2036
g89
g90
ssg71
g2025
sg64
(lp2037
S':'
asbag57
(g78
g59
NtRp2038
(dp2039
g62
(dp2040
sg71
g2025
sg64
(lp2041
g57
(g58
g59
NtRp2042
(dp2043
g62
(dp2044
g70
I5
ssg71
g2038
sg64
(lp2045
g100
asbasbasbag57
(g73
g59
NtRp2046
(dp2047
g62
(dp2048
sg71
g67
sg64
(lp2049
g57
(g78
g59
NtRp2050
(dp2051
g62
(dp2052
g82
g83
ssg71
g2046
sg64
(lp2053
S'now'
p2054
asbag57
(g78
g59
NtRp2055
(dp2056
g62
(dp2057
g89
g90
ssg71
g2046
sg64
(lp2058
S':'
asbag57
(g78
g59
NtRp2059
(dp2060
g62
(dp2061
sg71
g2046
sg64
(lp2062
g57
(g58
g59
NtRp2063
(dp2064
g62
(dp2065
g70
I5
ssg71
g2059
sg64
(lp2066
S'datetime.datetime(2012, 11, 21, 10, 15, 40, 79912)'
p2067
asbasbasbag57
(g73
g59
NtRp2068
(dp2069
g62
(dp2070
sg71
g67
sg64
(lp2071
g57
(g78
g59
NtRp2072
(dp2073
g62
(dp2074
g82
g83
ssg71
g2068
sg64
(lp2075
S'post_vars'
p2076
asbag57
(g78
g59
NtRp2077
(dp2078
g62
(dp2079
g89
g90
ssg71
g2068
sg64
(lp2080
S':'
asbag57
(g78
g59
NtRp2081
(dp2082
g62
(dp2083
sg71
g2068
sg64
(lp2084
g57
(g58
g59
NtRp2085
(dp2086
g62
(dp2087
g70
I5
ssg71
g2081
sg64
(lp2088
g57
(g66
g59
NtRp2089
(dp2090
g62
(dp2091
g70
I4
ssg71
Nsg64
(lp2092
sbasbasbasbag57
(g73
g59
NtRp2093
(dp2094
g62
(dp2095
sg71
g67
sg64
(lp2096
g57
(g78
g59
NtRp2097
(dp2098
g62
(dp2099
g82
g83
ssg71
g2093
sg64
(lp2100
S'raw_args'
p2101
asbag57
(g78
g59
NtRp2102
(dp2103
g62
(dp2104
g89
g90
ssg71
g2093
sg64
(lp2105
S':'
asbag57
(g78
g59
NtRp2106
(dp2107
g62
(dp2108
sg71
g2093
sg64
(lp2109
g57
(g58
g59
NtRp2110
(dp2111
g62
(dp2112
g70
I5
ssg71
g2106
sg64
(lp2113
S'None'
p2114
asbasbasbag57
(g73
g59
NtRp2115
(dp2116
g62
(dp2117
sg71
g67
sg64
(lp2118
g57
(g78
g59
NtRp2119
(dp2120
g62
(dp2121
g82
g83
ssg71
g2115
sg64
(lp2122
S'raw_extension'
p2123
asbag57
(g78
g59
NtRp2124
(dp2125
g62
(dp2126
g89
g90
ssg71
g2115
sg64
(lp2127
S':'
asbag57
(g78
g59
NtRp2128
(dp2129
g62
(dp2130
sg71
g2115
sg64
(lp2131
g57
(g58
g59
NtRp2132
(dp2133
g62
(dp2134
g70
I5
ssg71
g2128
sg64
(lp2135
S'None'
p2136
asbasbasbag57
(g73
g59
NtRp2137
(dp2138
g62
(dp2139
sg71
g67
sg64
(lp2140
g57
(g78
g59
NtRp2141
(dp2142
g62
(dp2143
g82
g83
ssg71
g2137
sg64
(lp2144
S'url'
p2145
asbag57
(g78
g59
NtRp2146
(dp2147
g62
(dp2148
g89
g90
ssg71
g2137
sg64
(lp2149
S':'
asbag57
(g78
g59
NtRp2150
(dp2151
g62
(dp2152
sg71
g2137
sg64
(lp2153
g57
(g58
g59
NtRp2154
(dp2155
g62
(dp2156
g70
I5
ssg71
g2150
sg64
(lp2157
g986
asbasbasbag57
(g73
g59
NtRp2158
(dp2159
g62
(dp2160
sg71
g67
sg64
(lp2161
g57
(g78
g59
NtRp2162
(dp2163
g62
(dp2164
g82
g83
ssg71
g2158
sg64
(lp2165
S'utcnow'
p2166
asbag57
(g78
g59
NtRp2167
(dp2168
g62
(dp2169
g89
g90
ssg71
g2158
sg64
(lp2170
S':'
asbag57
(g78
g59
NtRp2171
(dp2172
g62
(dp2173
sg71
g2158
sg64
(lp2174
g57
(g58
g59
NtRp2175
(dp2176
g62
(dp2177
g70
I5
ssg71
g2171
sg64
(lp2178
S'datetime.datetime(2012, 11, 21, 9, 15, 40, 79933)'
p2179
asbasbasbag57
(g73
g59
NtRp2180
(dp2181
g62
(dp2182
sg71
g67
sg64
(lp2183
g57
(g78
g59
NtRp2184
(dp2185
g62
(dp2186
g82
g83
ssg71
g2180
sg64
(lp2187
S'uuid'
p2188
asbag57
(g78
g59
NtRp2189
(dp2190
g62
(dp2191
g89
g90
ssg71
g2180
sg64
(lp2192
S':'
asbag57
(g78
g59
NtRp2193
(dp2194
g62
(dp2195
sg71
g2180
sg64
(lp2196
g57
(g58
g59
NtRp2197
(dp2198
g62
(dp2199
g70
I5
ssg71
g2193
sg64
(lp2200
S'controlies/127.0.0.1.2012-11-21.10-15-40.20bb9cb4-a691-473d-929f-90e0e24d4928'
p2201
asbasbasbag57
(g73
g59
NtRp2202
(dp2203
g62
(dp2204
sg71
g67
sg64
(lp2205
g57
(g78
g59
NtRp2206
(dp2207
g62
(dp2208
g82
g83
ssg71
g2202
sg64
(lp2209
S'vars'
p2210
asbag57
(g78
g59
NtRp2211
(dp2212
g62
(dp2213
g89
g90
ssg71
g2202
sg64
(lp2214
S':'
asbag57
(g78
g59
NtRp2215
(dp2216
g62
(dp2217
sg71
g2202
sg64
(lp2218
g57
(g58
g59
NtRp2219
(dp2220
g62
(dp2221
g70
I5
ssg71
g2215
sg64
(lp2222
g57
(g66
g59
NtRp2223
(dp2224
g62
(dp2225
g70
I4
ssg71
Nsg64
(lp2226
sbasbasbasbag57
(g73
g59
NtRp2227
(dp2228
g62
(dp2229
sg71
g67
sg64
(lp2230
g57
(g78
g59
NtRp2231
(dp2232
g62
(dp2233
g82
g83
ssg71
g2227
sg64
(lp2234
S'wsgi'
p2235
asbag57
(g78
g59
NtRp2236
(dp2237
g62
(dp2238
g89
g90
ssg71
g2227
sg64
(lp2239
S':'
asbag57
(g78
g59
NtRp2240
(dp2241
g62
(dp2242
sg71
g2227
sg64
(lp2243
g57
(g58
g59
NtRp2244
(dp2245
g62
(dp2246
g70
I5
ssg71
g2240
sg64
(lp2247
g57
(g66
g59
NtRp2248
(dp2249
g62
(dp2250
g70
I4
ssg71
Nsg64
(lp2251
g57
(g73
g59
NtRp2252
(dp2253
g62
(dp2254
sg71
g2248
sg64
(lp2255
g57
(g78
g59
NtRp2256
(dp2257
g62
(dp2258
g82
g83
ssg71
g2252
sg64
(lp2259
S'environ'
p2260
asbag57
(g78
g59
NtRp2261
(dp2262
g62
(dp2263
g89
g90
ssg71
g2252
sg64
(lp2264
S':'
asbag57
(g78
g59
NtRp2265
(dp2266
g62
(dp2267
sg71
g2252
sg64
(lp2268
g57
(g58
g59
NtRp2269
(dp2270
g62
(dp2271
g70
I4
ssg71
g2265
sg64
(lp2272
g57
(g66
g59
NtRp2273
(dp2274
g62
(dp2275
g70
I3
ssg71
Nsg64
(lp2276
g57
(g73
g59
NtRp2277
(dp2278
g62
(dp2279
sg71
g2273
sg64
(lp2280
g57
(g78
g59
NtRp2281
(dp2282
g62
(dp2283
g82
g83
ssg71
g2277
sg64
(lp2284
S'HTTP_ACCEPT'
p2285
asbag57
(g78
g59
NtRp2286
(dp2287
g62
(dp2288
g89
g90
ssg71
g2277
sg64
(lp2289
S':'
asbag57
(g78
g59
NtRp2290
(dp2291
g62
(dp2292
sg71
g2277
sg64
(lp2293
g57
(g58
g59
NtRp2294
(dp2295
g62
(dp2296
g70
I3
ssg71
g2290
sg64
(lp2297
g656
asbasbasbag57
(g73
g59
NtRp2298
(dp2299
g62
(dp2300
sg71
g2273
sg64
(lp2301
g57
(g78
g59
NtRp2302
(dp2303
g62
(dp2304
g82
g83
ssg71
g2298
sg64
(lp2305
S'HTTP_ACCEPT_CHARSET'
p2306
asbag57
(g78
g59
NtRp2307
(dp2308
g62
(dp2309
g89
g90
ssg71
g2298
sg64
(lp2310
S':'
asbag57
(g78
g59
NtRp2311
(dp2312
g62
(dp2313
sg71
g2298
sg64
(lp2314
g57
(g58
g59
NtRp2315
(dp2316
g62
(dp2317
g70
I3
ssg71
g2311
sg64
(lp2318
g678
asbasbasbag57
(g73
g59
NtRp2319
(dp2320
g62
(dp2321
sg71
g2273
sg64
(lp2322
g57
(g78
g59
NtRp2323
(dp2324
g62
(dp2325
g82
g83
ssg71
g2319
sg64
(lp2326
S'HTTP_ACCEPT_ENCODING'
p2327
asbag57
(g78
g59
NtRp2328
(dp2329
g62
(dp2330
g89
g90
ssg71
g2319
sg64
(lp2331
S':'
asbag57
(g78
g59
NtRp2332
(dp2333
g62
(dp2334
sg71
g2319
sg64
(lp2335
g57
(g58
g59
NtRp2336
(dp2337
g62
(dp2338
g70
I3
ssg71
g2332
sg64
(lp2339
g700
asbasbasbag57
(g73
g59
NtRp2340
(dp2341
g62
(dp2342
sg71
g2273
sg64
(lp2343
g57
(g78
g59
NtRp2344
(dp2345
g62
(dp2346
g82
g83
ssg71
g2340
sg64
(lp2347
S'HTTP_ACCEPT_LANGUAGE'
p2348
asbag57
(g78
g59
NtRp2349
(dp2350
g62
(dp2351
g89
g90
ssg71
g2340
sg64
(lp2352
S':'
asbag57
(g78
g59
NtRp2353
(dp2354
g62
(dp2355
sg71
g2340
sg64
(lp2356
g57
(g58
g59
NtRp2357
(dp2358
g62
(dp2359
g70
I3
ssg71
g2353
sg64
(lp2360
g722
asbasbasbag57
(g73
g59
NtRp2361
(dp2362
g62
(dp2363
sg71
g2273
sg64
(lp2364
g57
(g78
g59
NtRp2365
(dp2366
g62
(dp2367
g82
g83
ssg71
g2361
sg64
(lp2368
S'HTTP_CACHE_CONTROL'
p2369
asbag57
(g78
g59
NtRp2370
(dp2371
g62
(dp2372
g89
g90
ssg71
g2361
sg64
(lp2373
S':'
asbag57
(g78
g59
NtRp2374
(dp2375
g62
(dp2376
sg71
g2361
sg64
(lp2377
g57
(g58
g59
NtRp2378
(dp2379
g62
(dp2380
g70
I3
ssg71
g2374
sg64
(lp2381
g744
asbasbasbag57
(g73
g59
NtRp2382
(dp2383
g62
(dp2384
sg71
g2273
sg64
(lp2385
g57
(g78
g59
NtRp2386
(dp2387
g62
(dp2388
g82
g83
ssg71
g2382
sg64
(lp2389
S'HTTP_CONNECTION'
p2390
asbag57
(g78
g59
NtRp2391
(dp2392
g62
(dp2393
g89
g90
ssg71
g2382
sg64
(lp2394
S':'
asbag57
(g78
g59
NtRp2395
(dp2396
g62
(dp2397
sg71
g2382
sg64
(lp2398
g57
(g58
g59
NtRp2399
(dp2400
g62
(dp2401
g70
I3
ssg71
g2395
sg64
(lp2402
g766
asbasbasbag57
(g73
g59
NtRp2403
(dp2404
g62
(dp2405
sg71
g2273
sg64
(lp2406
g57
(g78
g59
NtRp2407
(dp2408
g62
(dp2409
g82
g83
ssg71
g2403
sg64
(lp2410
S'HTTP_COOKIE'
p2411
asbag57
(g78
g59
NtRp2412
(dp2413
g62
(dp2414
g89
g90
ssg71
g2403
sg64
(lp2415
S':'
asbag57
(g78
g59
NtRp2416
(dp2417
g62
(dp2418
sg71
g2403
sg64
(lp2419
g57
(g58
g59
NtRp2420
(dp2421
g62
(dp2422
g70
I3
ssg71
g2416
sg64
(lp2423
g788
asbasbasbag57
(g73
g59
NtRp2424
(dp2425
g62
(dp2426
sg71
g2273
sg64
(lp2427
g57
(g78
g59
NtRp2428
(dp2429
g62
(dp2430
g82
g83
ssg71
g2424
sg64
(lp2431
S'HTTP_HOST'
p2432
asbag57
(g78
g59
NtRp2433
(dp2434
g62
(dp2435
g89
g90
ssg71
g2424
sg64
(lp2436
S':'
asbag57
(g78
g59
NtRp2437
(dp2438
g62
(dp2439
sg71
g2424
sg64
(lp2440
g57
(g58
g59
NtRp2441
(dp2442
g62
(dp2443
g70
I3
ssg71
g2437
sg64
(lp2444
g810
asbasbasbag57
(g73
g59
NtRp2445
(dp2446
g62
(dp2447
sg71
g2273
sg64
(lp2448
g57
(g78
g59
NtRp2449
(dp2450
g62
(dp2451
g82
g83
ssg71
g2445
sg64
(lp2452
S'HTTP_USER_AGENT'
p2453
asbag57
(g78
g59
NtRp2454
(dp2455
g62
(dp2456
g89
g90
ssg71
g2445
sg64
(lp2457
S':'
asbag57
(g78
g59
NtRp2458
(dp2459
g62
(dp2460
sg71
g2445
sg64
(lp2461
g57
(g58
g59
NtRp2462
(dp2463
g62
(dp2464
g70
I3
ssg71
g2458
sg64
(lp2465
g832
asbasbasbag57
(g73
g59
NtRp2466
(dp2467
g62
(dp2468
sg71
g2273
sg64
(lp2469
g57
(g78
g59
NtRp2470
(dp2471
g62
(dp2472
g82
g83
ssg71
g2466
sg64
(lp2473
S'PATH_INFO'
p2474
asbag57
(g78
g59
NtRp2475
(dp2476
g62
(dp2477
g89
g90
ssg71
g2466
sg64
(lp2478
S':'
asbag57
(g78
g59
NtRp2479
(dp2480
g62
(dp2481
sg71
g2466
sg64
(lp2482
g57
(g58
g59
NtRp2483
(dp2484
g62
(dp2485
g70
I3
ssg71
g2479
sg64
(lp2486
g986
asbasbasbag57
(g73
g59
NtRp2487
(dp2488
g62
(dp2489
sg71
g2273
sg64
(lp2490
g57
(g78
g59
NtRp2491
(dp2492
g62
(dp2493
g82
g83
ssg71
g2487
sg64
(lp2494
S'QUERY_STRING'
p2495
asbag57
(g78
g59
NtRp2496
(dp2497
g62
(dp2498
g89
g90
ssg71
g2487
sg64
(lp2499
S':'
asbag57
(g78
g59
NtRp2500
(dp2501
g62
(dp2502
sg71
g2487
sg64
(lp2503
g57
(g58
g59
NtRp2504
(dp2505
g62
(dp2506
g70
I3
ssg71
g2500
sg64
(lp2507
S''
asbasbasbag57
(g73
g59
NtRp2508
(dp2509
g62
(dp2510
sg71
g2273
sg64
(lp2511
g57
(g78
g59
NtRp2512
(dp2513
g62
(dp2514
g82
g83
ssg71
g2508
sg64
(lp2515
S'REMOTE_ADDR'
p2516
asbag57
(g78
g59
NtRp2517
(dp2518
g62
(dp2519
g89
g90
ssg71
g2508
sg64
(lp2520
S':'
asbag57
(g78
g59
NtRp2521
(dp2522
g62
(dp2523
sg71
g2508
sg64
(lp2524
g57
(g58
g59
NtRp2525
(dp2526
g62
(dp2527
g70
I3
ssg71
g2521
sg64
(lp2528
g212
asbasbasbag57
(g73
g59
NtRp2529
(dp2530
g62
(dp2531
sg71
g2273
sg64
(lp2532
g57
(g78
g59
NtRp2533
(dp2534
g62
(dp2535
g82
g83
ssg71
g2529
sg64
(lp2536
S'REMOTE_PORT'
p2537
asbag57
(g78
g59
NtRp2538
(dp2539
g62
(dp2540
g89
g90
ssg71
g2529
sg64
(lp2541
S':'
asbag57
(g78
g59
NtRp2542
(dp2543
g62
(dp2544
sg71
g2529
sg64
(lp2545
g57
(g58
g59
NtRp2546
(dp2547
g62
(dp2548
g70
I3
ssg71
g2542
sg64
(lp2549
g1050
asbasbasbag57
(g73
g59
NtRp2550
(dp2551
g62
(dp2552
sg71
g2273
sg64
(lp2553
g57
(g78
g59
NtRp2554
(dp2555
g62
(dp2556
g82
g83
ssg71
g2550
sg64
(lp2557
S'REQUEST_METHOD'
p2558
asbag57
(g78
g59
NtRp2559
(dp2560
g62
(dp2561
g89
g90
ssg71
g2550
sg64
(lp2562
S':'
asbag57
(g78
g59
NtRp2563
(dp2564
g62
(dp2565
sg71
g2550
sg64
(lp2566
g57
(g58
g59
NtRp2567
(dp2568
g62
(dp2569
g70
I3
ssg71
g2563
sg64
(lp2570
g1072
asbasbasbag57
(g73
g59
NtRp2571
(dp2572
g62
(dp2573
sg71
g2273
sg64
(lp2574
g57
(g78
g59
NtRp2575
(dp2576
g62
(dp2577
g82
g83
ssg71
g2571
sg64
(lp2578
S'REQUEST_URI'
p2579
asbag57
(g78
g59
NtRp2580
(dp2581
g62
(dp2582
g89
g90
ssg71
g2571
sg64
(lp2583
S':'
asbag57
(g78
g59
NtRp2584
(dp2585
g62
(dp2586
sg71
g2571
sg64
(lp2587
g57
(g58
g59
NtRp2588
(dp2589
g62
(dp2590
g70
I3
ssg71
g2584
sg64
(lp2591
g986
asbasbasbag57
(g73
g59
NtRp2592
(dp2593
g62
(dp2594
sg71
g2273
sg64
(lp2595
g57
(g78
g59
NtRp2596
(dp2597
g62
(dp2598
g82
g83
ssg71
g2592
sg64
(lp2599
S'SCRIPT_NAME'
p2600
asbag57
(g78
g59
NtRp2601
(dp2602
g62
(dp2603
g89
g90
ssg71
g2592
sg64
(lp2604
S':'
asbag57
(g78
g59
NtRp2605
(dp2606
g62
(dp2607
sg71
g2592
sg64
(lp2608
g57
(g58
g59
NtRp2609
(dp2610
g62
(dp2611
g70
I3
ssg71
g2605
sg64
(lp2612
S''
asbasbasbag57
(g73
g59
NtRp2613
(dp2614
g62
(dp2615
sg71
g2273
sg64
(lp2616
g57
(g78
g59
NtRp2617
(dp2618
g62
(dp2619
g82
g83
ssg71
g2613
sg64
(lp2620
S'SERVER_NAME'
p2621
asbag57
(g78
g59
NtRp2622
(dp2623
g62
(dp2624
g89
g90
ssg71
g2613
sg64
(lp2625
S':'
asbag57
(g78
g59
NtRp2626
(dp2627
g62
(dp2628
sg71
g2613
sg64
(lp2629
g57
(g58
g59
NtRp2630
(dp2631
g62
(dp2632
g70
I3
ssg71
g2626
sg64
(lp2633
g951
asbasbasbag57
(g73
g59
NtRp2634
(dp2635
g62
(dp2636
sg71
g2273
sg64
(lp2637
g57
(g78
g59
NtRp2638
(dp2639
g62
(dp2640
g82
g83
ssg71
g2634
sg64
(lp2641
S'SERVER_PORT'
p2642
asbag57
(g78
g59
NtRp2643
(dp2644
g62
(dp2645
g89
g90
ssg71
g2634
sg64
(lp2646
S':'
asbag57
(g78
g59
NtRp2647
(dp2648
g62
(dp2649
sg71
g2634
sg64
(lp2650
g57
(g58
g59
NtRp2651
(dp2652
g62
(dp2653
g70
I3
ssg71
g2647
sg64
(lp2654
g1157
asbasbasbag57
(g73
g59
NtRp2655
(dp2656
g62
(dp2657
sg71
g2273
sg64
(lp2658
g57
(g78
g59
NtRp2659
(dp2660
g62
(dp2661
g82
g83
ssg71
g2655
sg64
(lp2662
S'SERVER_PROTOCOL'
p2663
asbag57
(g78
g59
NtRp2664
(dp2665
g62
(dp2666
g89
g90
ssg71
g2655
sg64
(lp2667
S':'
asbag57
(g78
g59
NtRp2668
(dp2669
g62
(dp2670
sg71
g2655
sg64
(lp2671
g57
(g58
g59
NtRp2672
(dp2673
g62
(dp2674
g70
I3
ssg71
g2668
sg64
(lp2675
g1179
asbasbasbag57
(g73
g59
NtRp2676
(dp2677
g62
(dp2678
sg71
g2273
sg64
(lp2679
g57
(g78
g59
NtRp2680
(dp2681
g62
(dp2682
g82
g83
ssg71
g2676
sg64
(lp2683
S'SERVER_SOFTWARE'
p2684
asbag57
(g78
g59
NtRp2685
(dp2686
g62
(dp2687
g89
g90
ssg71
g2676
sg64
(lp2688
S':'
asbag57
(g78
g59
NtRp2689
(dp2690
g62
(dp2691
sg71
g2676
sg64
(lp2692
g57
(g58
g59
NtRp2693
(dp2694
g62
(dp2695
g70
I3
ssg71
g2689
sg64
(lp2696
g1201
asbasbasbag57
(g73
g59
NtRp2697
(dp2698
g62
(dp2699
sg71
g2273
sg64
(lp2700
g57
(g78
g59
NtRp2701
(dp2702
g62
(dp2703
g82
g83
ssg71
g2697
sg64
(lp2704
S'wsgi.errors'
p2705
asbag57
(g78
g59
NtRp2706
(dp2707
g62
(dp2708
g89
g90
ssg71
g2697
sg64
(lp2709
S':'
asbag57
(g78
g59
NtRp2710
(dp2711
g62
(dp2712
sg71
g2697
sg64
(lp2713
g57
(g58
g59
NtRp2714
(dp2715
g62
(dp2716
g70
I3
ssg71
g2710
sg64
(lp2717
S"<open file '<stderr>', mode 'w' at 0xb739c0d0>"
p2718
asbasbasbag57
(g73
g59
NtRp2719
(dp2720
g62
(dp2721
sg71
g2273
sg64
(lp2722
g57
(g78
g59
NtRp2723
(dp2724
g62
(dp2725
g82
g83
ssg71
g2719
sg64
(lp2726
S'wsgi.file_wrapper'
p2727
asbag57
(g78
g59
NtRp2728
(dp2729
g62
(dp2730
g89
g90
ssg71
g2719
sg64
(lp2731
S':'
asbag57
(g78
g59
NtRp2732
(dp2733
g62
(dp2734
sg71
g2719
sg64
(lp2735
g57
(g58
g59
NtRp2736
(dp2737
g62
(dp2738
g70
I3
ssg71
g2732
sg64
(lp2739
S'<class wsgiref.util.FileWrapper at 0xa24bd1c>'
p2740
asbasbasbag57
(g73
g59
NtRp2741
(dp2742
g62
(dp2743
sg71
g2273
sg64
(lp2744
g57
(g78
g59
NtRp2745
(dp2746
g62
(dp2747
g82
g83
ssg71
g2741
sg64
(lp2748
S'wsgi.input'
p2749
asbag57
(g78
g59
NtRp2750
(dp2751
g62
(dp2752
g89
g90
ssg71
g2741
sg64
(lp2753
S':'
asbag57
(g78
g59
NtRp2754
(dp2755
g62
(dp2756
sg71
g2741
sg64
(lp2757
g57
(g58
g59
NtRp2758
(dp2759
g62
(dp2760
g70
I3
ssg71
g2754
sg64
(lp2761
S'<cStringIO.StringO object at 0xa617600>'
p2762
asbasbasbag57
(g73
g59
NtRp2763
(dp2764
g62
(dp2765
sg71
g2273
sg64
(lp2766
g57
(g78
g59
NtRp2767
(dp2768
g62
(dp2769
g82
g83
ssg71
g2763
sg64
(lp2770
S'wsgi.multiprocess'
p2771
asbag57
(g78
g59
NtRp2772
(dp2773
g62
(dp2774
g89
g90
ssg71
g2763
sg64
(lp2775
S':'
asbag57
(g78
g59
NtRp2776
(dp2777
g62
(dp2778
sg71
g2763
sg64
(lp2779
g57
(g58
g59
NtRp2780
(dp2781
g62
(dp2782
g70
I3
ssg71
g2776
sg64
(lp2783
g100
asbasbasbag57
(g73
g59
NtRp2784
(dp2785
g62
(dp2786
sg71
g2273
sg64
(lp2787
g57
(g78
g59
NtRp2788
(dp2789
g62
(dp2790
g82
g83
ssg71
g2784
sg64
(lp2791
S'wsgi.multithread'
p2792
asbag57
(g78
g59
NtRp2793
(dp2794
g62
(dp2795
g89
g90
ssg71
g2784
sg64
(lp2796
S':'
asbag57
(g78
g59
NtRp2797
(dp2798
g62
(dp2799
sg71
g2784
sg64
(lp2800
g57
(g58
g59
NtRp2801
(dp2802
g62
(dp2803
g70
I3
ssg71
g2797
sg64
(lp2804
g1418
asbasbasbag57
(g73
g59
NtRp2805
(dp2806
g62
(dp2807
sg71
g2273
sg64
(lp2808
g57
(g78
g59
NtRp2809
(dp2810
g62
(dp2811
g82
g83
ssg71
g2805
sg64
(lp2812
S'wsgi.run_once'
p2813
asbag57
(g78
g59
NtRp2814
(dp2815
g62
(dp2816
g89
g90
ssg71
g2805
sg64
(lp2817
S':'
asbag57
(g78
g59
NtRp2818
(dp2819
g62
(dp2820
sg71
g2805
sg64
(lp2821
g57
(g58
g59
NtRp2822
(dp2823
g62
(dp2824
g70
I3
ssg71
g2818
sg64
(lp2825
g100
asbasbasbag57
(g73
g59
NtRp2826
(dp2827
g62
(dp2828
sg71
g2273
sg64
(lp2829
g57
(g78
g59
NtRp2830
(dp2831
g62
(dp2832
g82
g83
ssg71
g2826
sg64
(lp2833
S'wsgi.url_scheme'
p2834
asbag57
(g78
g59
NtRp2835
(dp2836
g62
(dp2837
g89
g90
ssg71
g2826
sg64
(lp2838
S':'
asbag57
(g78
g59
NtRp2839
(dp2840
g62
(dp2841
sg71
g2826
sg64
(lp2842
g57
(g58
g59
NtRp2843
(dp2844
g62
(dp2845
g70
I3
ssg71
g2839
sg64
(lp2846
g1461
asbasbasbag57
(g73
g59
NtRp2847
(dp2848
g62
(dp2849
sg71
g2273
sg64
(lp2850
g57
(g78
g59
NtRp2851
(dp2852
g62
(dp2853
g82
g83
ssg71
g2847
sg64
(lp2854
S'wsgi.version'
p2855
asbag57
(g78
g59
NtRp2856
(dp2857
g62
(dp2858
g89
g90
ssg71
g2847
sg64
(lp2859
S':'
asbag57
(g78
g59
NtRp2860
(dp2861
g62
(dp2862
sg71
g2847
sg64
(lp2863
g57
(g58
g59
NtRp2864
(dp2865
g62
(dp2866
g70
I3
ssg71
g2860
sg64
(lp2867
S'1'
asbasbasbasbasbasbasbasbasbasbasbasbasbsS'frames'
p2868
(lp2869
(dp2870
S'file'
p2871
S'/home/manu/proyectos/web2py/gluon/restricted.py'
p2872
sS'dump'
p2873
(dp2874
S'environment'
p2875
S"{'A': <class 'gluon.html.A'>, 'Auth': <class 'gluon.tools.Auth'>, 'B': <class 'gluon.html.B'>, 'BEAUTIFY': <class 'gluon.html.BEAUTIFY'>, 'BODY': <class 'gluon.html.BODY'>, 'BR': <class 'gluon.html.BR'>, 'BUTTON': <class 'gluon.html.BUTTON'>, 'CAT': <class 'gluon.html.CAT'>, 'CENTER': <class 'gluon.html.CENTER'>, 'CLEANUP': <class 'gluon.validators.CLEANUP'>, ...}"
p2876
sS'ccode'
p2877
S'<code object <module> at 0xa73f578, file "/home/...ons/controlies/views/default/index.html", line 1>'
p2878
ssS'lnum'
p2879
I212
sS'lines'
p2880
(dp2881
I207
S'    try:'
p2882
sI208
S'        if isinstance(code, types.CodeType):'
p2883
sI209
S'            ccode = code'
p2884
sI210
S'        else:'
p2885
sI211
S'            ccode = compile2(code, layer)'
p2886
sI212
S'        exec ccode in environment'
p2887
sI213
S'    except HTTP:'
p2888
sI214
S'        raise'
p2889
sI215
S'    except RestrictedError:'
p2890
sI216
S'        # do not encapsulate (obfuscate) the original RestrictedError'
p2891
ssS'call'
p2892
S'(code=r"response.files.append(URL(\'static\',\'js/jquery.tz...   </div>\\n\\n  </body>\\n</html>\\n\', escape=False)", environment={\'A\': <class \'gluon.html.A\'>, \'Auth\': <class \'gluon.tools.Auth\'>, \'B\': <class \'gluon.html.B\'>, \'BEAUTIFY\': <class \'gluon.html.BEAUTIFY\'>, \'BODY\': <class \'gluon.html.BODY\'>, \'BR\': <class \'gluon.html.BR\'>, \'BUTTON\': <class \'gluon.html.BUTTON\'>, \'CAT\': <class \'gluon.html.CAT\'>, \'CENTER\': <class \'gluon.html.CENTER\'>, \'CLEANUP\': <class \'gluon.validators.CLEANUP\'>, ...}, layer=\'/home/manu/proyectos/web2py/applications/controlies/views/default/index.html\')'
p2893
sS'func'
p2894
S'restricted'
p2895
sa(dp2896
g2871
S'/home/manu/proyectos/web2py/applications/controlies/views/default/index.html'
p2897
sg2873
(dp2898
sg2879
I99
sg2880
(dp2899
I96
S'response.write(\'</div> <!-- notification div -->\\n    \\n    <div id="container">                        \\n      <div id="wrapper">        \\n\\t\\t    <div class="topbar">\\n\\t\\t      <div class="container">    \\n\\t\\t        <div class="sixteen columns">\\n\\t\\t         \', escape=False)'
p2900
sI97
S'if auth.user is not None:'
p2901
sI98
S'    response.write(\'\\n\\t\\t          <div style="float:left; vertical-align:middle;" id="myTitle">Control<span class="fontTitle">IES</span><br></div>\\n\\t\\t          <div id="menu">\', escape=False)'
p2902
sI99
S"    response.write(MENU(response.menu,_class='sf-menu'))"
p2903
sI100
S"    response.write('</div>\\n              \\t  ', escape=False)"
p2904
sI101
S'    pass'
p2905
sI102
S'response.write(\'\\n\\t\\t        </div>\\n\\t\\t      </div>\\n\\t\\t    </div><!-- topbar -->\\n    \\n            <div id="header"> <!-- header and login nav -->\\n              \', escape=False)'
p2906
sI103
S"response.write(' <!-- this is default header -->\\n\\t\\t\\t\\t', escape=False)"
p2907
sI104
S'try:'
p2908
sI105
S"    response.write(SPAN(T('Welcome'),' ',auth.user.first_name,' [ ', A(T('logout'),_href=URL('default','user')+'/logout'), ']',_class='auth_navbar'))"
p2909
sI106
S'except:pass'
p2910
sI107
S'response.write(\'   \\n\\t              <div style="clear: both;"></div><!-- Clear the divs -->\\n              \', escape=False)'
p2911
sI108
S'response.write(\'                                     \\n            </div><!-- header  -->\\n    \\n    \\n            <div id="page"> <!-- Here my central body -->     \\n        \\n                  \', escape=False)'
p2912
sI109
S'if left_sidebar_enabled:'
p2913
sI90
S'else: left_sidebar_style = \'style="display: none;"\''
p2914
sI91
S'if right_sidebar_enabled: right_sidebar_style = \'style="display: block;"\''
p2915
sI92
S'else: right_sidebar_style = \'style="display: none;"\''
p2916
sI93
S'style_content = \'style="width: %s"\' % width_content'
p2917
sI94
S'response.write(\'\\n  </head>\\n  \\n  <body> \\n    \\n    <div class="flash">\', escape=False)'
p2918
sI95
S"response.write(response.flash or '')"
p2919
ssg2892
S'()'
p2920
sg2894
S'<module>'
p2921
sa(dp2922
g2871
S'/home/manu/proyectos/web2py/gluon/globals.py'
p2923
sg2873
(dp2924
S'self.body.write'
p2925
S'<built-in method write of cStringIO.StringO object>'
p2926
sS'self.body'
p2927
S'<cStringIO.StringO object>'
p2928
sS'self'
p2929
S"<Storage {'body': <cStringIO.StringO object at 0...da> at 0xa747764>, 'view': 'default/index.html'}>"
p2930
sS'global xmlescape'
p2931
S'<function xmlescape>'
p2932
sS'data'
p2933
S'<gluon.html.MENU object>'
p2934
ssg2879
I197
sg2880
(dp2935
I192
S''
sI193
S'    def write(self, data, escape=True):'
p2936
sI194
S'        if not escape:'
p2937
sI195
S'            self.body.write(str(data))'
p2938
sI196
S'        else:'
p2939
sI197
S'            self.body.write(xmlescape(data))'
p2940
sI198
S''
sI199
S'    def render(self, *a, **b):'
p2941
sI200
S'        from compileapp import run_view_in'
p2942
sI201
S'        if len(a) > 2:'
p2943
ssg2892
S"(self=<Storage {'body': <cStringIO.StringO object at 0...da> at 0xa747764>, 'view': 'default/index.html'}>, data=<gluon.html.MENU object>, escape=True)"
p2944
sg2894
S'write'
p2945
sa(dp2946
g2871
S'/home/manu/proyectos/web2py/gluon/html.py'
p2947
sg2873
(dp2948
S'data'
p2949
S'<gluon.html.MENU object>'
p2950
sS'data.xml'
p2951
S'<bound method MENU.xml of <gluon.html.MENU object>>'
p2952
ssg2879
I120
sg2880
(dp2953
I115
S'    :param quote: optional (default False)'
p2954
sI116
S'    """'
p2955
sI117
S''
sI118
S'    # first try the xml function'
p2956
sI119
S"    if hasattr(data, 'xml') and callable(data.xml):"
p2957
sI120
S'        return data.xml()'
p2958
sI121
S''
sI122
S'    # otherwise, make it a string'
p2959
sI123
S'    if not isinstance(data, (str, unicode)):'
p2960
sI124
S'        data = str(data)'
p2961
ssg2892
S'(data=<gluon.html.MENU object>, quote=True)'
p2962
sg2894
S'xmlescape'
p2963
sa(dp2964
g2871
S'/home/manu/proyectos/web2py/gluon/html.py'
p2965
sg2873
(dp2966
S'self.serialize'
p2967
S'<bound method MENU.serialize of <gluon.html.MENU object>>'
p2968
sS').xml'
p2969
S'undefined'
p2970
sS'self'
p2971
S'<gluon.html.MENU object>'
p2972
sS'self.data'
p2973
S"[(<lazyT 'Home'>, False, '/controlies/default/index', []), ('LDAP', False, None, [('Usuarios', False, '/controlies/usuarios/index'), ('Grupos', False, '/controlies/grupos/index'), ('Servidores LTSP', False, '/controlies/hosts/ltspservers'), ('Workstations', False, '/controlies/hosts/workstations'), ('Port\\xc3\\xa1tiles', False, '/controlies/hosts/laptops'), ('Clientes Ligeros', False, '/controlies/thinclients/index')]), ('Gesti\\xc3\\xb3n', False, None, [('Servidores de Aula', False, '/controlies/gestion/servidores_aula'), ('Importaci\\xc3\\xb3n de Rayuela', False, '/controlies/gestion/rayuela')]), ('Base de Datos', False, None, [('Port\\xc3\\xa1tiles', False, '/controlies/laptops/index'), ('Grupos', False, '/controlies/laptops_groups/index'), ('Marcas', False, '/controlies/laptops_trademarks/index')]), ('Informes', False, None, [('Compromisos Port\\xc3\\xa1tiles', False, '/controlies/reports/laptops')]), ('Acerca de', False, 'javascript:showInfo()'), [('Mantenimiento de LDAP', False, None, [('Limpieza de usuarios inexistentes en grupos', False, '/controlies/gestion/limpieza_usuarios'), ('Detecci\\xc3\\xb3n de uid o gid duplicados', False, '/controlies/gestion/duplicados')])]]"
p2974
ssg2879
I2358
sg2880
(dp2975
I2353
S''
sI2354
S'    def xml(self):'
p2976
sI2355
S"        if self['mobile']:"
p2977
sI2356
S'            return self.serialize_mobile(self.data, 0).xml()'
p2978
sI2357
S'        else:'
p2979
sI2358
S'            return self.serialize(self.data, 0).xml()'
p2980
sI2359
S''
sI2360
S''
sI2361
S'def embed64('
p2981
sI2362
S'    filename=None,'
p2982
ssg2892
S'(self=<gluon.html.MENU object>)'
p2983
sg2894
S'xml'
p2984
sa(dp2985
g2871
S'/home/manu/proyectos/web2py/gluon/html.py'
p2986
sg2873
(dp2987
S'active'
p2988
g100
sS'item'
p2989
S"[('Mantenimiento de LDAP', False, None, [('Limpieza de usuarios inexistentes en grupos', False, '/controlies/gestion/limpieza_usuarios'), ('Detecci\\xc3\\xb3n de uid o gid duplicados', False, '/controlies/gestion/duplicados')])]"
p2990
sS'link'
p2991
S"'javascript:showInfo()'"
p2992
sS'name'
p2993
S"'Acerca de'"
p2994
ssg2879
I2317
sg2880
(dp2995
I2312
S'        if level == 0:'
p2996
sI2313
S'            ul = UL(**self.attributes)'
p2997
sI2314
S'        else:'
p2998
sI2315
S"            ul = UL(_class=self['ul_class'])"
p2999
sI2316
S'        for item in data:'
p3000
sI2317
S'            (name, active, link) = item[:3]'
p3001
sI2318
S'            if isinstance(link, DIV):'
p3002
sI2319
S'                li = LI(link)'
p3003
sI2320
S"            elif 'no_link_url' in self.attributes and self['no_link_url'] == link:"
p3004
sI2321
S'                li = LI(DIV(name))'
p3005
ssg2892
S"(self=<gluon.html.MENU object>, data=[(<lazyT 'Home'>, False, '/controlies/default/index', []), ('LDAP', False, None, [('Usuarios', False, '/controlies/usuarios/index'), ('Grupos', False, '/controlies/grupos/index'), ('Servidores LTSP', False, '/controlies/hosts/ltspservers'), ('Workstations', False, '/controlies/hosts/workstations'), ('Port\\xc3\\xa1tiles', False, '/controlies/hosts/laptops'), ('Clientes Ligeros', False, '/controlies/thinclients/index')]), ('Gesti\\xc3\\xb3n', False, None, [('Servidores de Aula', False, '/controlies/gestion/servidores_aula'), ('Importaci\\xc3\\xb3n de Rayuela', False, '/controlies/gestion/rayuela')]), ('Base de Datos', False, None, [('Port\\xc3\\xa1tiles', False, '/controlies/laptops/index'), ('Grupos', False, '/controlies/laptops_groups/index'), ('Marcas', False, '/controlies/laptops_trademarks/index')]), ('Informes', False, None, [('Compromisos Port\\xc3\\xa1tiles', False, '/controlies/reports/laptops')]), ('Acerca de', False, 'javascript:showInfo()'), [('Mantenimiento de LDAP', False, None, [('Limpieza de usuarios inexistentes en grupos', False, '/controlies/gestion/limpieza_usuarios'), ('Detecci\\xc3\\xb3n de uid o gid duplicados', False, '/controlies/gestion/duplicados')])]], level=0)"
p3006
sg2894
S'serialize'
p3007
sasS'pyver'
p3008
S'Python 2.6.6: /usr/bin/python2.6'
p3009
sS'session'
p3010
g57
(g58
g59
NtRp3011
(dp3012
g62
(dp3013
sg64
(lp3014
g57
(g66
g59
NtRp3015
(dp3016
g62
(dp3017
g70
I5
ssg71
Nsg64
(lp3018
g57
(g73
g59
NtRp3019
(dp3020
g62
(dp3021
sg71
g3015
sg64
(lp3022
g57
(g78
g59
NtRp3023
(dp3024
g62
(dp3025
g82
g83
ssg71
g3019
sg64
(lp3026
S'auth'
p3027
asbag57
(g78
g59
NtRp3028
(dp3029
g62
(dp3030
g89
g90
ssg71
g3019
sg64
(lp3031
S':'
asbag57
(g78
g59
NtRp3032
(dp3033
g62
(dp3034
sg71
g3019
sg64
(lp3035
g57
(g58
g59
NtRp3036
(dp3037
g62
(dp3038
g70
I5
ssg71
g3032
sg64
(lp3039
g57
(g66
g59
NtRp3040
(dp3041
g62
(dp3042
g70
I4
ssg71
Nsg64
(lp3043
g57
(g73
g59
NtRp3044
(dp3045
g62
(dp3046
sg71
g3040
sg64
(lp3047
g57
(g78
g59
NtRp3048
(dp3049
g62
(dp3050
g82
g83
ssg71
g3044
sg64
(lp3051
S'expiration'
p3052
asbag57
(g78
g59
NtRp3053
(dp3054
g62
(dp3055
g89
g90
ssg71
g3044
sg64
(lp3056
S':'
asbag57
(g78
g59
NtRp3057
(dp3058
g62
(dp3059
sg71
g3044
sg64
(lp3060
g57
(g58
g59
NtRp3061
(dp3062
g62
(dp3063
g70
I4
ssg71
g3057
sg64
(lp3064
S'3600'
p3065
asbasbasbag57
(g73
g59
NtRp3066
(dp3067
g62
(dp3068
sg71
g3040
sg64
(lp3069
g57
(g78
g59
NtRp3070
(dp3071
g62
(dp3072
g82
g83
ssg71
g3066
sg64
(lp3073
S'hmac_key'
p3074
asbag57
(g78
g59
NtRp3075
(dp3076
g62
(dp3077
g89
g90
ssg71
g3066
sg64
(lp3078
S':'
asbag57
(g78
g59
NtRp3079
(dp3080
g62
(dp3081
sg71
g3066
sg64
(lp3082
g57
(g58
g59
NtRp3083
(dp3084
g62
(dp3085
g70
I4
ssg71
g3079
sg64
(lp3086
S'5d30d257-4d1c-4f77-89c4-c49822947983'
p3087
asbasbasbag57
(g73
g59
NtRp3088
(dp3089
g62
(dp3090
sg71
g3040
sg64
(lp3091
g57
(g78
g59
NtRp3092
(dp3093
g62
(dp3094
g82
g83
ssg71
g3088
sg64
(lp3095
S'last_visit'
p3096
asbag57
(g78
g59
NtRp3097
(dp3098
g62
(dp3099
g89
g90
ssg71
g3088
sg64
(lp3100
S':'
asbag57
(g78
g59
NtRp3101
(dp3102
g62
(dp3103
sg71
g3088
sg64
(lp3104
g57
(g58
g59
NtRp3105
(dp3106
g62
(dp3107
g70
I4
ssg71
g3101
sg64
(lp3108
S'datetime.datetime(2012, 11, 21, 10, 15, 0, 754593)'
p3109
asbasbasbag57
(g73
g59
NtRp3110
(dp3111
g62
(dp3112
sg71
g3040
sg64
(lp3113
g57
(g78
g59
NtRp3114
(dp3115
g62
(dp3116
g82
g83
ssg71
g3110
sg64
(lp3117
S'remember'
p3118
asbag57
(g78
g59
NtRp3119
(dp3120
g62
(dp3121
g89
g90
ssg71
g3110
sg64
(lp3122
S':'
asbag57
(g78
g59
NtRp3123
(dp3124
g62
(dp3125
sg71
g3110
sg64
(lp3126
g57
(g58
g59
NtRp3127
(dp3128
g62
(dp3129
g70
I4
ssg71
g3123
sg64
(lp3130
g100
asbasbasbag57
(g73
g59
NtRp3131
(dp3132
g62
(dp3133
sg71
g3040
sg64
(lp3134
g57
(g78
g59
NtRp3135
(dp3136
g62
(dp3137
g82
g83
ssg71
g3131
sg64
(lp3138
S'user'
p3139
asbag57
(g78
g59
NtRp3140
(dp3141
g62
(dp3142
g89
g90
ssg71
g3131
sg64
(lp3143
S':'
asbag57
(g78
g59
NtRp3144
(dp3145
g62
(dp3146
sg71
g3131
sg64
(lp3147
g57
(g58
g59
NtRp3148
(dp3149
g62
(dp3150
g70
I4
ssg71
g3144
sg64
(lp3151
g57
(g66
g59
NtRp3152
(dp3153
g62
(dp3154
g70
I3
ssg71
Nsg64
(lp3155
g57
(g73
g59
NtRp3156
(dp3157
g62
(dp3158
sg71
g3152
sg64
(lp3159
g57
(g78
g59
NtRp3160
(dp3161
g62
(dp3162
g82
g83
ssg71
g3156
sg64
(lp3163
S'email'
p3164
asbag57
(g78
g59
NtRp3165
(dp3166
g62
(dp3167
g89
g90
ssg71
g3156
sg64
(lp3168
S':'
asbag57
(g78
g59
NtRp3169
(dp3170
g62
(dp3171
sg71
g3156
sg64
(lp3172
g57
(g58
g59
NtRp3173
(dp3174
g62
(dp3175
g70
I3
ssg71
g3169
sg64
(lp3176
S''
asbasbasbag57
(g73
g59
NtRp3177
(dp3178
g62
(dp3179
sg71
g3152
sg64
(lp3180
g57
(g78
g59
NtRp3181
(dp3182
g62
(dp3183
g82
g83
ssg71
g3177
sg64
(lp3184
S'first_name'
p3185
asbag57
(g78
g59
NtRp3186
(dp3187
g62
(dp3188
g89
g90
ssg71
g3177
sg64
(lp3189
S':'
asbag57
(g78
g59
NtRp3190
(dp3191
g62
(dp3192
sg71
g3177
sg64
(lp3193
g57
(g58
g59
NtRp3194
(dp3195
g62
(dp3196
g70
I3
ssg71
g3190
sg64
(lp3197
S'admin'
p3198
asbasbasbag57
(g73
g59
NtRp3199
(dp3200
g62
(dp3201
sg71
g3152
sg64
(lp3202
g57
(g78
g59
NtRp3203
(dp3204
g62
(dp3205
g82
g83
ssg71
g3199
sg64
(lp3206
S'id'
p3207
asbag57
(g78
g59
NtRp3208
(dp3209
g62
(dp3210
g89
g90
ssg71
g3199
sg64
(lp3211
S':'
asbag57
(g78
g59
NtRp3212
(dp3213
g62
(dp3214
sg71
g3199
sg64
(lp3215
g57
(g58
g59
NtRp3216
(dp3217
g62
(dp3218
g70
I3
ssg71
g3212
sg64
(lp3219
S'1'
asbasbasbag57
(g73
g59
NtRp3220
(dp3221
g62
(dp3222
sg71
g3152
sg64
(lp3223
g57
(g78
g59
NtRp3224
(dp3225
g62
(dp3226
g82
g83
ssg71
g3220
sg64
(lp3227
S'last_name'
p3228
asbag57
(g78
g59
NtRp3229
(dp3230
g62
(dp3231
g89
g90
ssg71
g3220
sg64
(lp3232
S':'
asbag57
(g78
g59
NtRp3233
(dp3234
g62
(dp3235
sg71
g3220
sg64
(lp3236
g57
(g58
g59
NtRp3237
(dp3238
g62
(dp3239
g70
I3
ssg71
g3233
sg64
(lp3240
S''
asbasbasbag57
(g73
g59
NtRp3241
(dp3242
g62
(dp3243
sg71
g3152
sg64
(lp3244
g57
(g78
g59
NtRp3245
(dp3246
g62
(dp3247
g82
g83
ssg71
g3241
sg64
(lp3248
S'registration_id'
p3249
asbag57
(g78
g59
NtRp3250
(dp3251
g62
(dp3252
g89
g90
ssg71
g3241
sg64
(lp3253
S':'
asbag57
(g78
g59
NtRp3254
(dp3255
g62
(dp3256
sg71
g3241
sg64
(lp3257
g57
(g58
g59
NtRp3258
(dp3259
g62
(dp3260
g70
I3
ssg71
g3254
sg64
(lp3261
S'admin'
p3262
asbasbasbag57
(g73
g59
NtRp3263
(dp3264
g62
(dp3265
sg71
g3152
sg64
(lp3266
g57
(g78
g59
NtRp3267
(dp3268
g62
(dp3269
g82
g83
ssg71
g3263
sg64
(lp3270
S'registration_key'
p3271
asbag57
(g78
g59
NtRp3272
(dp3273
g62
(dp3274
g89
g90
ssg71
g3263
sg64
(lp3275
S':'
asbag57
(g78
g59
NtRp3276
(dp3277
g62
(dp3278
sg71
g3263
sg64
(lp3279
g57
(g58
g59
NtRp3280
(dp3281
g62
(dp3282
g70
I3
ssg71
g3276
sg64
(lp3283
S''
asbasbasbag57
(g73
g59
NtRp3284
(dp3285
g62
(dp3286
sg71
g3152
sg64
(lp3287
g57
(g78
g59
NtRp3288
(dp3289
g62
(dp3290
g82
g83
ssg71
g3284
sg64
(lp3291
S'reset_password_key'
p3292
asbag57
(g78
g59
NtRp3293
(dp3294
g62
(dp3295
g89
g90
ssg71
g3284
sg64
(lp3296
S':'
asbag57
(g78
g59
NtRp3297
(dp3298
g62
(dp3299
sg71
g3284
sg64
(lp3300
g57
(g58
g59
NtRp3301
(dp3302
g62
(dp3303
g70
I3
ssg71
g3297
sg64
(lp3304
S''
asbasbasbag57
(g73
g59
NtRp3305
(dp3306
g62
(dp3307
sg71
g3152
sg64
(lp3308
g57
(g78
g59
NtRp3309
(dp3310
g62
(dp3311
g82
g83
ssg71
g3305
sg64
(lp3312
S'username'
p3313
asbag57
(g78
g59
NtRp3314
(dp3315
g62
(dp3316
g89
g90
ssg71
g3305
sg64
(lp3317
S':'
asbag57
(g78
g59
NtRp3318
(dp3319
g62
(dp3320
sg71
g3305
sg64
(lp3321
g57
(g58
g59
NtRp3322
(dp3323
g62
(dp3324
g70
I3
ssg71
g3318
sg64
(lp3325
S'admin'
p3326
asbasbasbasbasbasbasbag57
(g73
g59
NtRp3327
(dp3328
g62
(dp3329
sg71
g3040
sg64
(lp3330
g57
(g78
g59
NtRp3331
(dp3332
g62
(dp3333
g82
g83
ssg71
g3327
sg64
(lp3334
S'user_groups'
p3335
asbag57
(g78
g59
NtRp3336
(dp3337
g62
(dp3338
g89
g90
ssg71
g3327
sg64
(lp3339
S':'
asbag57
(g78
g59
NtRp3340
(dp3341
g62
(dp3342
sg71
g3327
sg64
(lp3343
g57
(g58
g59
NtRp3344
(dp3345
g62
(dp3346
g70
I4
ssg71
g3340
sg64
(lp3347
g57
(g66
g59
NtRp3348
(dp3349
g62
(dp3350
g70
I3
ssg71
Nsg64
(lp3351
g57
(g73
g59
NtRp3352
(dp3353
g62
(dp3354
sg71
g3348
sg64
(lp3355
g57
(g78
g59
NtRp3356
(dp3357
g62
(dp3358
g82
g83
ssg71
g3352
sg64
(lp3359
S'1'
asbag57
(g78
g59
NtRp3360
(dp3361
g62
(dp3362
g89
g90
ssg71
g3352
sg64
(lp3363
S':'
asbag57
(g78
g59
NtRp3364
(dp3365
g62
(dp3366
sg71
g3352
sg64
(lp3367
g57
(g58
g59
NtRp3368
(dp3369
g62
(dp3370
g70
I3
ssg71
g3364
sg64
(lp3371
S'user_1'
p3372
asbasbasbasbasbasbasbasbasbasbasbag57
(g73
g59
NtRp3373
(dp3374
g62
(dp3375
sg71
g3015
sg64
(lp3376
g57
(g78
g59
NtRp3377
(dp3378
g62
(dp3379
g82
g83
ssg71
g3373
sg64
(lp3380
S'flash'
p3381
asbag57
(g78
g59
NtRp3382
(dp3383
g62
(dp3384
g89
g90
ssg71
g3373
sg64
(lp3385
S':'
asbag57
(g78
g59
NtRp3386
(dp3387
g62
(dp3388
sg71
g3373
sg64
(lp3389
g57
(g58
g59
NtRp3390
(dp3391
g62
(dp3392
g70
I5
ssg71
g3386
sg64
(lp3393
S'None'
p3394
asbasbasbag57
(g73
g59
NtRp3395
(dp3396
g62
(dp3397
sg71
g3015
sg64
(lp3398
g57
(g78
g59
NtRp3399
(dp3400
g62
(dp3401
g82
g83
ssg71
g3395
sg64
(lp3402
S'password'
p3403
asbag57
(g78
g59
NtRp3404
(dp3405
g62
(dp3406
g89
g90
ssg71
g3395
sg64
(lp3407
S':'
asbag57
(g78
g59
NtRp3408
(dp3409
g62
(dp3410
sg71
g3395
sg64
(lp3411
g57
(g58
g59
NtRp3412
(dp3413
g62
(dp3414
g70
I5
ssg71
g3408
sg64
(lp3415
S'Sta1987teleco'
p3416
asbasbasbag57
(g73
g59
NtRp3417
(dp3418
g62
(dp3419
sg71
g3015
sg64
(lp3420
g57
(g78
g59
NtRp3421
(dp3422
g62
(dp3423
g82
g83
ssg71
g3417
sg64
(lp3424
S'server'
p3425
asbag57
(g78
g59
NtRp3426
(dp3427
g62
(dp3428
g89
g90
ssg71
g3417
sg64
(lp3429
S':'
asbag57
(g78
g59
NtRp3430
(dp3431
g62
(dp3432
sg71
g3417
sg64
(lp3433
g57
(g58
g59
NtRp3434
(dp3435
g62
(dp3436
g70
I5
ssg71
g3430
sg64
(lp3437
S'localhost'
p3438
asbasbasbag57
(g73
g59
NtRp3439
(dp3440
g62
(dp3441
sg71
g3015
sg64
(lp3442
g57
(g78
g59
NtRp3443
(dp3444
g62
(dp3445
g82
g83
ssg71
g3439
sg64
(lp3446
g3313
asbag57
(g78
g59
NtRp3447
(dp3448
g62
(dp3449
g89
g90
ssg71
g3439
sg64
(lp3450
S':'
asbag57
(g78
g59
NtRp3451
(dp3452
g62
(dp3453
sg71
g3439
sg64
(lp3454
g57
(g58
g59
NtRp3455
(dp3456
g62
(dp3457
g70
I5
ssg71
g3451
sg64
(lp3458
S'admin'
p3459
asbasbasbasbasbsS'etype'
p3460
S"<type 'exceptions.ValueError'>"
p3461
sS'date'
p3462
S'Wed Nov 21 10:15:40 2012'
p3463
sS'response'
p3464
g57
(g58
g59
NtRp3465
(dp3466
g62
(dp3467
sg64
(lp3468
g57
(g66
g59
NtRp3469
(dp3470
g62
(dp3471
g70
I5
ssg71
Nsg64
(lp3472
g57
(g73
g59
NtRp3473
(dp3474
g62
(dp3475
sg71
g3469
sg64
(lp3476
g57
(g78
g59
NtRp3477
(dp3478
g62
(dp3479
g82
g83
ssg71
g3473
sg64
(lp3480
g155
asbag57
(g78
g59
NtRp3481
(dp3482
g62
(dp3483
g89
g90
ssg71
g3473
sg64
(lp3484
S':'
asbag57
(g78
g59
NtRp3485
(dp3486
g62
(dp3487
sg71
g3473
sg64
(lp3488
g57
(g58
g59
NtRp3489
(dp3490
g62
(dp3491
g70
I5
ssg71
g3485
sg64
(lp3492
S'<cStringIO.StringO object at 0xa617e40>'
p3493
asbasbasbag57
(g73
g59
NtRp3494
(dp3495
g62
(dp3496
sg71
g3469
sg64
(lp3497
g57
(g78
g59
NtRp3498
(dp3499
g62
(dp3500
g82
g83
ssg71
g3494
sg64
(lp3501
g243
asbag57
(g78
g59
NtRp3502
(dp3503
g62
(dp3504
g89
g90
ssg71
g3494
sg64
(lp3505
S':'
asbag57
(g78
g59
NtRp3506
(dp3507
g62
(dp3508
sg71
g3494
sg64
(lp3509
g57
(g58
g59
NtRp3510
(dp3511
g62
(dp3512
g70
I5
ssg71
g3506
sg64
(lp3513
g57
(g66
g59
NtRp3514
(dp3515
g62
(dp3516
g70
I4
ssg71
Nsg64
(lp3517
g57
(g73
g59
NtRp3518
(dp3519
g62
(dp3520
sg71
g3514
sg64
(lp3521
g57
(g78
g59
NtRp3522
(dp3523
g62
(dp3524
g82
g83
ssg71
g3518
sg64
(lp3525
S'session_id_controlies'
p3526
asbag57
(g78
g59
NtRp3527
(dp3528
g62
(dp3529
g89
g90
ssg71
g3518
sg64
(lp3530
S':'
asbag57
(g78
g59
NtRp3531
(dp3532
g62
(dp3533
sg71
g3518
sg64
(lp3534
g57
(g58
g59
NtRp3535
(dp3536
g62
(dp3537
g70
I4
ssg71
g3531
sg64
(lp3538
g281
ag57
(g66
g59
NtRp3539
(dp3540
g62
(dp3541
g70
I3
ssg71
Nsg64
(lp3542
g57
(g73
g59
NtRp3543
(dp3544
g62
(dp3545
sg71
g3539
sg64
(lp3546
g57
(g78
g59
NtRp3547
(dp3548
g62
(dp3549
g82
g83
ssg71
g3543
sg64
(lp3550
g294
asbag57
(g78
g59
NtRp3551
(dp3552
g62
(dp3553
g89
g90
ssg71
g3543
sg64
(lp3554
S':'
asbag57
(g78
g59
NtRp3555
(dp3556
g62
(dp3557
sg71
g3543
sg64
(lp3558
g57
(g58
g59
NtRp3559
(dp3560
g62
(dp3561
g70
I3
ssg71
g3555
sg64
(lp3562
S''
asbasbasbag57
(g73
g59
NtRp3563
(dp3564
g62
(dp3565
sg71
g3539
sg64
(lp3566
g57
(g78
g59
NtRp3567
(dp3568
g62
(dp3569
g82
g83
ssg71
g3563
sg64
(lp3570
g315
asbag57
(g78
g59
NtRp3571
(dp3572
g62
(dp3573
g89
g90
ssg71
g3563
sg64
(lp3574
S':'
asbag57
(g78
g59
NtRp3575
(dp3576
g62
(dp3577
sg71
g3563
sg64
(lp3578
g57
(g58
g59
NtRp3579
(dp3580
g62
(dp3581
g70
I3
ssg71
g3575
sg64
(lp3582
S''
asbasbasbag57
(g73
g59
NtRp3583
(dp3584
g62
(dp3585
sg71
g3539
sg64
(lp3586
g57
(g78
g59
NtRp3587
(dp3588
g62
(dp3589
g82
g83
ssg71
g3583
sg64
(lp3590
g336
asbag57
(g78
g59
NtRp3591
(dp3592
g62
(dp3593
g89
g90
ssg71
g3583
sg64
(lp3594
S':'
asbag57
(g78
g59
NtRp3595
(dp3596
g62
(dp3597
sg71
g3583
sg64
(lp3598
g57
(g58
g59
NtRp3599
(dp3600
g62
(dp3601
g70
I3
ssg71
g3595
sg64
(lp3602
S''
asbasbasbag57
(g73
g59
NtRp3603
(dp3604
g62
(dp3605
sg71
g3539
sg64
(lp3606
g57
(g78
g59
NtRp3607
(dp3608
g62
(dp3609
g82
g83
ssg71
g3603
sg64
(lp3610
g357
asbag57
(g78
g59
NtRp3611
(dp3612
g62
(dp3613
g89
g90
ssg71
g3603
sg64
(lp3614
S':'
asbag57
(g78
g59
NtRp3615
(dp3616
g62
(dp3617
sg71
g3603
sg64
(lp3618
g57
(g58
g59
NtRp3619
(dp3620
g62
(dp3621
g70
I3
ssg71
g3615
sg64
(lp3622
S''
asbasbasbag57
(g73
g59
NtRp3623
(dp3624
g62
(dp3625
sg71
g3539
sg64
(lp3626
g57
(g78
g59
NtRp3627
(dp3628
g62
(dp3629
g82
g83
ssg71
g3623
sg64
(lp3630
g378
asbag57
(g78
g59
NtRp3631
(dp3632
g62
(dp3633
g89
g90
ssg71
g3623
sg64
(lp3634
S':'
asbag57
(g78
g59
NtRp3635
(dp3636
g62
(dp3637
sg71
g3623
sg64
(lp3638
g57
(g58
g59
NtRp3639
(dp3640
g62
(dp3641
g70
I3
ssg71
g3635
sg64
(lp3642
S''
asbasbasbag57
(g73
g59
NtRp3643
(dp3644
g62
(dp3645
sg71
g3539
sg64
(lp3646
g57
(g78
g59
NtRp3647
(dp3648
g62
(dp3649
g82
g83
ssg71
g3643
sg64
(lp3650
g399
asbag57
(g78
g59
NtRp3651
(dp3652
g62
(dp3653
g89
g90
ssg71
g3643
sg64
(lp3654
S':'
asbag57
(g78
g59
NtRp3655
(dp3656
g62
(dp3657
sg71
g3643
sg64
(lp3658
g57
(g58
g59
NtRp3659
(dp3660
g62
(dp3661
g70
I3
ssg71
g3655
sg64
(lp3662
S'/'
asbasbasbag57
(g73
g59
NtRp3663
(dp3664
g62
(dp3665
sg71
g3539
sg64
(lp3666
g57
(g78
g59
NtRp3667
(dp3668
g62
(dp3669
g82
g83
ssg71
g3663
sg64
(lp3670
g420
asbag57
(g78
g59
NtRp3671
(dp3672
g62
(dp3673
g89
g90
ssg71
g3663
sg64
(lp3674
S':'
asbag57
(g78
g59
NtRp3675
(dp3676
g62
(dp3677
sg71
g3663
sg64
(lp3678
g57
(g58
g59
NtRp3679
(dp3680
g62
(dp3681
g70
I3
ssg71
g3675
sg64
(lp3682
S''
asbasbasbag57
(g73
g59
NtRp3683
(dp3684
g62
(dp3685
sg71
g3539
sg64
(lp3686
g57
(g78
g59
NtRp3687
(dp3688
g62
(dp3689
g82
g83
ssg71
g3683
sg64
(lp3690
g441
asbag57
(g78
g59
NtRp3691
(dp3692
g62
(dp3693
g89
g90
ssg71
g3683
sg64
(lp3694
S':'
asbag57
(g78
g59
NtRp3695
(dp3696
g62
(dp3697
sg71
g3683
sg64
(lp3698
g57
(g58
g59
NtRp3699
(dp3700
g62
(dp3701
g70
I3
ssg71
g3695
sg64
(lp3702
S''
asbasbasbasbasbasbasbasbasbasbasbag57
(g73
g59
NtRp3703
(dp3704
g62
(dp3705
sg71
g3469
sg64
(lp3706
g57
(g78
g59
NtRp3707
(dp3708
g62
(dp3709
g82
g83
ssg71
g3703
sg64
(lp3710
S'delimiters'
p3711
asbag57
(g78
g59
NtRp3712
(dp3713
g62
(dp3714
g89
g90
ssg71
g3703
sg64
(lp3715
S':'
asbag57
(g78
g59
NtRp3716
(dp3717
g62
(dp3718
sg71
g3703
sg64
(lp3719
g57
(g58
g59
NtRp3720
(dp3721
g62
(dp3722
g70
I5
ssg71
g3716
sg64
(lp3723
g57
(g66
g59
NtRp3724
(dp3725
g62
(dp3726
g70
I4
ssg71
Nsg64
(lp3727
g57
(g73
g59
NtRp3728
(dp3729
g62
(dp3730
sg71
g3724
sg64
(lp3731
g57
(g78
g59
NtRp3732
(dp3733
g62
(dp3734
sg71
g3728
sg64
(lp3735
g57
(g58
g59
NtRp3736
(dp3737
g62
(dp3738
g70
I4
ssg71
g3732
sg64
(lp3739
S'{{'
p3740
asbasbasbag57
(g73
g59
NtRp3741
(dp3742
g62
(dp3743
sg71
g3724
sg64
(lp3744
g57
(g78
g59
NtRp3745
(dp3746
g62
(dp3747
sg71
g3741
sg64
(lp3748
g57
(g58
g59
NtRp3749
(dp3750
g62
(dp3751
g70
I4
ssg71
g3745
sg64
(lp3752
S'}}'
p3753
asbasbasbasbasbasbasbag57
(g73
g59
NtRp3754
(dp3755
g62
(dp3756
sg71
g3469
sg64
(lp3757
g57
(g78
g59
NtRp3758
(dp3759
g62
(dp3760
g82
g83
ssg71
g3754
sg64
(lp3761
S'files'
p3762
asbag57
(g78
g59
NtRp3763
(dp3764
g62
(dp3765
g89
g90
ssg71
g3754
sg64
(lp3766
S':'
asbag57
(g78
g59
NtRp3767
(dp3768
g62
(dp3769
sg71
g3754
sg64
(lp3770
g57
(g58
g59
NtRp3771
(dp3772
g62
(dp3773
g70
I5
ssg71
g3767
sg64
(lp3774
g57
(g66
g59
NtRp3775
(dp3776
g62
(dp3777
g70
I4
ssg71
Nsg64
(lp3778
g57
(g73
g59
NtRp3779
(dp3780
g62
(dp3781
sg71
g3775
sg64
(lp3782
g57
(g78
g59
NtRp3783
(dp3784
g62
(dp3785
sg71
g3779
sg64
(lp3786
g57
(g58
g59
NtRp3787
(dp3788
g62
(dp3789
g70
I4
ssg71
g3783
sg64
(lp3790
S'/controlies/static/js/jquery/jquery.js'
p3791
asbasbasbag57
(g73
g59
NtRp3792
(dp3793
g62
(dp3794
sg71
g3775
sg64
(lp3795
g57
(g78
g59
NtRp3796
(dp3797
g62
(dp3798
sg71
g3792
sg64
(lp3799
g57
(g58
g59
NtRp3800
(dp3801
g62
(dp3802
g70
I4
ssg71
g3796
sg64
(lp3803
S'/controlies/static/js/jquery/jquery-ui.custom.min.js'
p3804
asbasbasbag57
(g73
g59
NtRp3805
(dp3806
g62
(dp3807
sg71
g3775
sg64
(lp3808
g57
(g78
g59
NtRp3809
(dp3810
g62
(dp3811
sg71
g3805
sg64
(lp3812
g57
(g58
g59
NtRp3813
(dp3814
g62
(dp3815
g70
I4
ssg71
g3809
sg64
(lp3816
S'/controlies/static/css/calendar.css'
p3817
asbasbasbag57
(g73
g59
NtRp3818
(dp3819
g62
(dp3820
sg71
g3775
sg64
(lp3821
g57
(g78
g59
NtRp3822
(dp3823
g62
(dp3824
sg71
g3818
sg64
(lp3825
g57
(g58
g59
NtRp3826
(dp3827
g62
(dp3828
g70
I4
ssg71
g3822
sg64
(lp3829
S'/controlies/static/js/calendar.js'
p3830
asbasbasbag57
(g73
g59
NtRp3831
(dp3832
g62
(dp3833
sg71
g3775
sg64
(lp3834
g57
(g78
g59
NtRp3835
(dp3836
g62
(dp3837
sg71
g3831
sg64
(lp3838
g57
(g58
g59
NtRp3839
(dp3840
g62
(dp3841
g70
I4
ssg71
g3835
sg64
(lp3842
S'/controlies/static/js/jquery.tzineClock/jquery.tzineClock.css'
p3843
asbasbasbag57
(g73
g59
NtRp3844
(dp3845
g62
(dp3846
sg71
g3775
sg64
(lp3847
g57
(g78
g59
NtRp3848
(dp3849
g62
(dp3850
sg71
g3844
sg64
(lp3851
g57
(g58
g59
NtRp3852
(dp3853
g62
(dp3854
g70
I4
ssg71
g3848
sg64
(lp3855
S'/controlies/static/js/jquery.tzineClock/jquery.tzineClock.js'
p3856
asbasbasbag57
(g73
g59
NtRp3857
(dp3858
g62
(dp3859
sg71
g3775
sg64
(lp3860
g57
(g78
g59
NtRp3861
(dp3862
g62
(dp3863
sg71
g3857
sg64
(lp3864
g57
(g58
g59
NtRp3865
(dp3866
g62
(dp3867
g70
I4
ssg71
g3861
sg64
(lp3868
S'/controlies/static/js/jdgrid/css/ui.jqgrid.css'
p3869
asbasbasbag57
(g73
g59
NtRp3870
(dp3871
g62
(dp3872
sg71
g3775
sg64
(lp3873
g57
(g78
g59
NtRp3874
(dp3875
g62
(dp3876
sg71
g3870
sg64
(lp3877
g57
(g58
g59
NtRp3878
(dp3879
g62
(dp3880
g70
I4
ssg71
g3874
sg64
(lp3881
S'/controlies/static/js/jquery/jquery.dropdown.js'
p3882
asbasbasbag57
(g73
g59
NtRp3883
(dp3884
g62
(dp3885
sg71
g3775
sg64
(lp3886
g57
(g78
g59
NtRp3887
(dp3888
g62
(dp3889
sg71
g3883
sg64
(lp3890
g57
(g58
g59
NtRp3891
(dp3892
g62
(dp3893
g70
I4
ssg71
g3887
sg64
(lp3894
S'/controlies/static/js/jdgrid/grid.locale-sp.js'
p3895
asbasbasbag57
(g73
g59
NtRp3896
(dp3897
g62
(dp3898
sg71
g3775
sg64
(lp3899
g57
(g78
g59
NtRp3900
(dp3901
g62
(dp3902
sg71
g3896
sg64
(lp3903
g57
(g58
g59
NtRp3904
(dp3905
g62
(dp3906
g70
I4
ssg71
g3900
sg64
(lp3907
S'/controlies/static/js/jdgrid/jquery.jqGrid.min.js'
p3908
asbasbasbag57
(g73
g59
NtRp3909
(dp3910
g62
(dp3911
sg71
g3775
sg64
(lp3912
g57
(g78
g59
NtRp3913
(dp3914
g62
(dp3915
sg71
g3909
sg64
(lp3916
g57
(g58
g59
NtRp3917
(dp3918
g62
(dp3919
g70
I4
ssg71
g3913
sg64
(lp3920
S'/controlies/static/js/jdgrid/src/grid.common.js'
p3921
asbasbasbag57
(g73
g59
NtRp3922
(dp3923
g62
(dp3924
sg71
g3775
sg64
(lp3925
g57
(g78
g59
NtRp3926
(dp3927
g62
(dp3928
sg71
g3922
sg64
(lp3929
g57
(g58
g59
NtRp3930
(dp3931
g62
(dp3932
g70
I4
ssg71
g3926
sg64
(lp3933
S'/controlies/static/js/jdgrid/src/grid.formedit.js'
p3934
asbasbasbag57
(g73
g59
NtRp3935
(dp3936
g62
(dp3937
sg71
g3775
sg64
(lp3938
g57
(g78
g59
NtRp3939
(dp3940
g62
(dp3941
sg71
g3935
sg64
(lp3942
g57
(g58
g59
NtRp3943
(dp3944
g62
(dp3945
g70
I4
ssg71
g3939
sg64
(lp3946
S'/controlies/static/js/jdgrid/src/grid.custom.js'
p3947
asbasbasbag57
(g73
g59
NtRp3948
(dp3949
g62
(dp3950
sg71
g3775
sg64
(lp3951
g57
(g78
g59
NtRp3952
(dp3953
g62
(dp3954
sg71
g3948
sg64
(lp3955
g57
(g58
g59
NtRp3956
(dp3957
g62
(dp3958
g70
I4
ssg71
g3952
sg64
(lp3959
S'/controlies/static/css/base.css'
p3960
asbasbasbag57
(g73
g59
NtRp3961
(dp3962
g62
(dp3963
sg71
g3775
sg64
(lp3964
g57
(g78
g59
NtRp3965
(dp3966
g62
(dp3967
sg71
g3961
sg64
(lp3968
g57
(g58
g59
NtRp3969
(dp3970
g62
(dp3971
g70
I4
ssg71
g3965
sg64
(lp3972
S'/controlies/static/css/superfish.css'
p3973
asbasbasbag57
(g73
g59
NtRp3974
(dp3975
g62
(dp3976
sg71
g3775
sg64
(lp3977
g57
(g78
g59
NtRp3978
(dp3979
g62
(dp3980
sg71
g3974
sg64
(lp3981
g57
(g58
g59
NtRp3982
(dp3983
g62
(dp3984
g70
I4
ssg71
g3978
sg64
(lp3985
S'/controlies/static/js/superfish.js'
p3986
asbasbasbag57
(g73
g59
NtRp3987
(dp3988
g62
(dp3989
sg71
g3775
sg64
(lp3990
g57
(g78
g59
NtRp3991
(dp3992
g62
(dp3993
sg71
g3987
sg64
(lp3994
g57
(g58
g59
NtRp3995
(dp3996
g62
(dp3997
g70
I4
ssg71
g3991
sg64
(lp3998
S'/controlies/static/ui/css/ui-lightness/jquery-ui-1.8.9.custom.css'
p3999
asbasbasbasbasbasbasbag57
(g73
g59
NtRp4000
(dp4001
g62
(dp4002
sg71
g3469
sg64
(lp4003
g57
(g78
g59
NtRp4004
(dp4005
g62
(dp4006
g82
g83
ssg71
g4000
sg64
(lp4007
S'flash'
p4008
asbag57
(g78
g59
NtRp4009
(dp4010
g62
(dp4011
g89
g90
ssg71
g4000
sg64
(lp4012
S':'
asbag57
(g78
g59
NtRp4013
(dp4014
g62
(dp4015
sg71
g4000
sg64
(lp4016
g57
(g58
g59
NtRp4017
(dp4018
g62
(dp4019
g70
I5
ssg71
g4013
sg64
(lp4020
S''
asbasbasbag57
(g73
g59
NtRp4021
(dp4022
g62
(dp4023
sg71
g3469
sg64
(lp4024
g57
(g78
g59
NtRp4025
(dp4026
g62
(dp4027
g82
g83
ssg71
g4021
sg64
(lp4028
S'generic_patterns'
p4029
asbag57
(g78
g59
NtRp4030
(dp4031
g62
(dp4032
g89
g90
ssg71
g4021
sg64
(lp4033
S':'
asbag57
(g78
g59
NtRp4034
(dp4035
g62
(dp4036
sg71
g4021
sg64
(lp4037
g57
(g58
g59
NtRp4038
(dp4039
g62
(dp4040
g70
I5
ssg71
g4034
sg64
(lp4041
g57
(g66
g59
NtRp4042
(dp4043
g62
(dp4044
g70
I4
ssg71
Nsg64
(lp4045
sbasbasbasbag57
(g73
g59
NtRp4046
(dp4047
g62
(dp4048
sg71
g3469
sg64
(lp4049
g57
(g78
g59
NtRp4050
(dp4051
g62
(dp4052
g82
g83
ssg71
g4046
sg64
(lp4053
S'headers'
p4054
asbag57
(g78
g59
NtRp4055
(dp4056
g62
(dp4057
g89
g90
ssg71
g4046
sg64
(lp4058
S':'
asbag57
(g78
g59
NtRp4059
(dp4060
g62
(dp4061
sg71
g4046
sg64
(lp4062
g57
(g58
g59
NtRp4063
(dp4064
g62
(dp4065
g70
I5
ssg71
g4059
sg64
(lp4066
g57
(g66
g59
NtRp4067
(dp4068
g62
(dp4069
g70
I4
ssg71
Nsg64
(lp4070
g57
(g73
g59
NtRp4071
(dp4072
g62
(dp4073
sg71
g4067
sg64
(lp4074
g57
(g78
g59
NtRp4075
(dp4076
g62
(dp4077
g82
g83
ssg71
g4071
sg64
(lp4078
S'X-Powered-By'
p4079
asbag57
(g78
g59
NtRp4080
(dp4081
g62
(dp4082
g89
g90
ssg71
g4071
sg64
(lp4083
S':'
asbag57
(g78
g59
NtRp4084
(dp4085
g62
(dp4086
sg71
g4071
sg64
(lp4087
g57
(g58
g59
NtRp4088
(dp4089
g62
(dp4090
g70
I4
ssg71
g4084
sg64
(lp4091
S'web2py'
p4092
asbasbasbasbasbasbasbag57
(g73
g59
NtRp4093
(dp4094
g62
(dp4095
sg71
g3469
sg64
(lp4096
g57
(g78
g59
NtRp4097
(dp4098
g62
(dp4099
g82
g83
ssg71
g4093
sg64
(lp4100
S'menu'
p4101
asbag57
(g78
g59
NtRp4102
(dp4103
g62
(dp4104
g89
g90
ssg71
g4093
sg64
(lp4105
S':'
asbag57
(g78
g59
NtRp4106
(dp4107
g62
(dp4108
sg71
g4093
sg64
(lp4109
g57
(g58
g59
NtRp4110
(dp4111
g62
(dp4112
g70
I5
ssg71
g4106
sg64
(lp4113
g57
(g66
g59
NtRp4114
(dp4115
g62
(dp4116
g70
I4
ssg71
Nsg64
(lp4117
g57
(g73
g59
NtRp4118
(dp4119
g62
(dp4120
sg71
g4114
sg64
(lp4121
g57
(g78
g59
NtRp4122
(dp4123
g62
(dp4124
sg71
g4118
sg64
(lp4125
g57
(g58
g59
NtRp4126
(dp4127
g62
(dp4128
g70
I4
ssg71
g4122
sg64
(lp4129
g57
(g66
g59
NtRp4130
(dp4131
g62
(dp4132
g70
I3
ssg71
Nsg64
(lp4133
g57
(g73
g59
NtRp4134
(dp4135
g62
(dp4136
sg71
g4130
sg64
(lp4137
g57
(g78
g59
NtRp4138
(dp4139
g62
(dp4140
sg71
g4134
sg64
(lp4141
g57
(g58
g59
NtRp4142
(dp4143
g62
(dp4144
g70
I3
ssg71
g4138
sg64
(lp4145
cgluon.languages
lazyT_unpickle
p4146
(S's\x06\x00\x00\x00Inicio'
tRp4147
asbasbasbag57
(g73
g59
NtRp4148
(dp4149
g62
(dp4150
sg71
g4130
sg64
(lp4151
g57
(g78
g59
NtRp4152
(dp4153
g62
(dp4154
sg71
g4148
sg64
(lp4155
g57
(g58
g59
NtRp4156
(dp4157
g62
(dp4158
g70
I3
ssg71
g4152
sg64
(lp4159
g100
asbasbasbag57
(g73
g59
NtRp4160
(dp4161
g62
(dp4162
sg71
g4130
sg64
(lp4163
g57
(g78
g59
NtRp4164
(dp4165
g62
(dp4166
sg71
g4160
sg64
(lp4167
g57
(g58
g59
NtRp4168
(dp4169
g62
(dp4170
g70
I3
ssg71
g4164
sg64
(lp4171
S'/controlies/default/index'
p4172
asbasbasbag57
(g73
g59
NtRp4173
(dp4174
g62
(dp4175
sg71
g4130
sg64
(lp4176
g57
(g78
g59
NtRp4177
(dp4178
g62
(dp4179
sg71
g4173
sg64
(lp4180
g57
(g58
g59
NtRp4181
(dp4182
g62
(dp4183
g70
I3
ssg71
g4177
sg64
(lp4184
g57
(g66
g59
NtRp4185
(dp4186
g62
(dp4187
g70
I2
ssg71
Nsg64
(lp4188
sbasbasbasbasbasbasbasbag57
(g73
g59
NtRp4189
(dp4190
g62
(dp4191
sg71
g4114
sg64
(lp4192
g57
(g78
g59
NtRp4193
(dp4194
g62
(dp4195
sg71
g4189
sg64
(lp4196
g57
(g58
g59
NtRp4197
(dp4198
g62
(dp4199
g70
I4
ssg71
g4193
sg64
(lp4200
g57
(g66
g59
NtRp4201
(dp4202
g62
(dp4203
g70
I3
ssg71
Nsg64
(lp4204
g57
(g73
g59
NtRp4205
(dp4206
g62
(dp4207
sg71
g4201
sg64
(lp4208
g57
(g78
g59
NtRp4209
(dp4210
g62
(dp4211
sg71
g4205
sg64
(lp4212
g57
(g58
g59
NtRp4213
(dp4214
g62
(dp4215
g70
I3
ssg71
g4209
sg64
(lp4216
S'LDAP'
p4217
asbasbasbag57
(g73
g59
NtRp4218
(dp4219
g62
(dp4220
sg71
g4201
sg64
(lp4221
g57
(g78
g59
NtRp4222
(dp4223
g62
(dp4224
sg71
g4218
sg64
(lp4225
g57
(g58
g59
NtRp4226
(dp4227
g62
(dp4228
g70
I3
ssg71
g4222
sg64
(lp4229
g100
asbasbasbag57
(g73
g59
NtRp4230
(dp4231
g62
(dp4232
sg71
g4201
sg64
(lp4233
g57
(g78
g59
NtRp4234
(dp4235
g62
(dp4236
sg71
g4230
sg64
(lp4237
g57
(g58
g59
NtRp4238
(dp4239
g62
(dp4240
g70
I3
ssg71
g4234
sg64
(lp4241
S'None'
p4242
asbasbasbag57
(g73
g59
NtRp4243
(dp4244
g62
(dp4245
sg71
g4201
sg64
(lp4246
g57
(g78
g59
NtRp4247
(dp4248
g62
(dp4249
sg71
g4243
sg64
(lp4250
g57
(g58
g59
NtRp4251
(dp4252
g62
(dp4253
g70
I3
ssg71
g4247
sg64
(lp4254
g57
(g66
g59
NtRp4255
(dp4256
g62
(dp4257
g70
I2
ssg71
Nsg64
(lp4258
g57
(g73
g59
NtRp4259
(dp4260
g62
(dp4261
sg71
g4255
sg64
(lp4262
g57
(g78
g59
NtRp4263
(dp4264
g62
(dp4265
sg71
g4259
sg64
(lp4266
g57
(g58
g59
NtRp4267
(dp4268
g62
(dp4269
g70
I2
ssg71
g4263
sg64
(lp4270
g57
(g66
g59
NtRp4271
(dp4272
g62
(dp4273
g70
I1
ssg71
Nsg64
(lp4274
g57
(g73
g59
NtRp4275
(dp4276
g62
(dp4277
sg71
g4271
sg64
(lp4278
g57
(g78
g59
NtRp4279
(dp4280
g62
(dp4281
sg71
g4275
sg64
(lp4282
g57
(g58
g59
NtRp4283
(dp4284
g62
(dp4285
g70
I1
ssg71
g4279
sg64
(lp4286
S'Usuarios'
p4287
asbasbasbag57
(g73
g59
NtRp4288
(dp4289
g62
(dp4290
sg71
g4271
sg64
(lp4291
g57
(g78
g59
NtRp4292
(dp4293
g62
(dp4294
sg71
g4288
sg64
(lp4295
g57
(g58
g59
NtRp4296
(dp4297
g62
(dp4298
g70
I1
ssg71
g4292
sg64
(lp4299
I00
asbasbasbag57
(g73
g59
NtRp4300
(dp4301
g62
(dp4302
sg71
g4271
sg64
(lp4303
g57
(g78
g59
NtRp4304
(dp4305
g62
(dp4306
sg71
g4300
sg64
(lp4307
g57
(g58
g59
NtRp4308
(dp4309
g62
(dp4310
g70
I1
ssg71
g4304
sg64
(lp4311
S'/controlies/usuarios/index'
p4312
asbasbasbasbasbasbasbag57
(g73
g59
NtRp4313
(dp4314
g62
(dp4315
sg71
g4255
sg64
(lp4316
g57
(g78
g59
NtRp4317
(dp4318
g62
(dp4319
sg71
g4313
sg64
(lp4320
g57
(g58
g59
NtRp4321
(dp4322
g62
(dp4323
g70
I2
ssg71
g4317
sg64
(lp4324
g57
(g66
g59
NtRp4325
(dp4326
g62
(dp4327
g70
I1
ssg71
Nsg64
(lp4328
g57
(g73
g59
NtRp4329
(dp4330
g62
(dp4331
sg71
g4325
sg64
(lp4332
g57
(g78
g59
NtRp4333
(dp4334
g62
(dp4335
sg71
g4329
sg64
(lp4336
g57
(g58
g59
NtRp4337
(dp4338
g62
(dp4339
g70
I1
ssg71
g4333
sg64
(lp4340
S'Grupos'
p4341
asbasbasbag57
(g73
g59
NtRp4342
(dp4343
g62
(dp4344
sg71
g4325
sg64
(lp4345
g57
(g78
g59
NtRp4346
(dp4347
g62
(dp4348
sg71
g4342
sg64
(lp4349
g57
(g58
g59
NtRp4350
(dp4351
g62
(dp4352
g70
I1
ssg71
g4346
sg64
(lp4353
I00
asbasbasbag57
(g73
g59
NtRp4354
(dp4355
g62
(dp4356
sg71
g4325
sg64
(lp4357
g57
(g78
g59
NtRp4358
(dp4359
g62
(dp4360
sg71
g4354
sg64
(lp4361
g57
(g58
g59
NtRp4362
(dp4363
g62
(dp4364
g70
I1
ssg71
g4358
sg64
(lp4365
S'/controlies/grupos/index'
p4366
asbasbasbasbasbasbasbag57
(g73
g59
NtRp4367
(dp4368
g62
(dp4369
sg71
g4255
sg64
(lp4370
g57
(g78
g59
NtRp4371
(dp4372
g62
(dp4373
sg71
g4367
sg64
(lp4374
g57
(g58
g59
NtRp4375
(dp4376
g62
(dp4377
g70
I2
ssg71
g4371
sg64
(lp4378
g57
(g66
g59
NtRp4379
(dp4380
g62
(dp4381
g70
I1
ssg71
Nsg64
(lp4382
g57
(g73
g59
NtRp4383
(dp4384
g62
(dp4385
sg71
g4379
sg64
(lp4386
g57
(g78
g59
NtRp4387
(dp4388
g62
(dp4389
sg71
g4383
sg64
(lp4390
g57
(g58
g59
NtRp4391
(dp4392
g62
(dp4393
g70
I1
ssg71
g4387
sg64
(lp4394
S'Servidores LTSP'
p4395
asbasbasbag57
(g73
g59
NtRp4396
(dp4397
g62
(dp4398
sg71
g4379
sg64
(lp4399
g57
(g78
g59
NtRp4400
(dp4401
g62
(dp4402
sg71
g4396
sg64
(lp4403
g57
(g58
g59
NtRp4404
(dp4405
g62
(dp4406
g70
I1
ssg71
g4400
sg64
(lp4407
I00
asbasbasbag57
(g73
g59
NtRp4408
(dp4409
g62
(dp4410
sg71
g4379
sg64
(lp4411
g57
(g78
g59
NtRp4412
(dp4413
g62
(dp4414
sg71
g4408
sg64
(lp4415
g57
(g58
g59
NtRp4416
(dp4417
g62
(dp4418
g70
I1
ssg71
g4412
sg64
(lp4419
S'/controlies/hosts/ltspservers'
p4420
asbasbasbasbasbasbasbag57
(g73
g59
NtRp4421
(dp4422
g62
(dp4423
sg71
g4255
sg64
(lp4424
g57
(g78
g59
NtRp4425
(dp4426
g62
(dp4427
sg71
g4421
sg64
(lp4428
g57
(g58
g59
NtRp4429
(dp4430
g62
(dp4431
g70
I2
ssg71
g4425
sg64
(lp4432
g57
(g66
g59
NtRp4433
(dp4434
g62
(dp4435
g70
I1
ssg71
Nsg64
(lp4436
g57
(g73
g59
NtRp4437
(dp4438
g62
(dp4439
sg71
g4433
sg64
(lp4440
g57
(g78
g59
NtRp4441
(dp4442
g62
(dp4443
sg71
g4437
sg64
(lp4444
g57
(g58
g59
NtRp4445
(dp4446
g62
(dp4447
g70
I1
ssg71
g4441
sg64
(lp4448
S'Workstations'
p4449
asbasbasbag57
(g73
g59
NtRp4450
(dp4451
g62
(dp4452
sg71
g4433
sg64
(lp4453
g57
(g78
g59
NtRp4454
(dp4455
g62
(dp4456
sg71
g4450
sg64
(lp4457
g57
(g58
g59
NtRp4458
(dp4459
g62
(dp4460
g70
I1
ssg71
g4454
sg64
(lp4461
I00
asbasbasbag57
(g73
g59
NtRp4462
(dp4463
g62
(dp4464
sg71
g4433
sg64
(lp4465
g57
(g78
g59
NtRp4466
(dp4467
g62
(dp4468
sg71
g4462
sg64
(lp4469
g57
(g58
g59
NtRp4470
(dp4471
g62
(dp4472
g70
I1
ssg71
g4466
sg64
(lp4473
S'/controlies/hosts/workstations'
p4474
asbasbasbasbasbasbasbag57
(g73
g59
NtRp4475
(dp4476
g62
(dp4477
sg71
g4255
sg64
(lp4478
g57
(g78
g59
NtRp4479
(dp4480
g62
(dp4481
sg71
g4475
sg64
(lp4482
g57
(g58
g59
NtRp4483
(dp4484
g62
(dp4485
g70
I2
ssg71
g4479
sg64
(lp4486
g57
(g66
g59
NtRp4487
(dp4488
g62
(dp4489
g70
I1
ssg71
Nsg64
(lp4490
g57
(g73
g59
NtRp4491
(dp4492
g62
(dp4493
sg71
g4487
sg64
(lp4494
g57
(g78
g59
NtRp4495
(dp4496
g62
(dp4497
sg71
g4491
sg64
(lp4498
g57
(g58
g59
NtRp4499
(dp4500
g62
(dp4501
g70
I1
ssg71
g4495
sg64
(lp4502
S'Port\xc3\xa1tiles'
p4503
asbasbasbag57
(g73
g59
NtRp4504
(dp4505
g62
(dp4506
sg71
g4487
sg64
(lp4507
g57
(g78
g59
NtRp4508
(dp4509
g62
(dp4510
sg71
g4504
sg64
(lp4511
g57
(g58
g59
NtRp4512
(dp4513
g62
(dp4514
g70
I1
ssg71
g4508
sg64
(lp4515
I00
asbasbasbag57
(g73
g59
NtRp4516
(dp4517
g62
(dp4518
sg71
g4487
sg64
(lp4519
g57
(g78
g59
NtRp4520
(dp4521
g62
(dp4522
sg71
g4516
sg64
(lp4523
g57
(g58
g59
NtRp4524
(dp4525
g62
(dp4526
g70
I1
ssg71
g4520
sg64
(lp4527
S'/controlies/hosts/laptops'
p4528
asbasbasbasbasbasbasbag57
(g73
g59
NtRp4529
(dp4530
g62
(dp4531
sg71
g4255
sg64
(lp4532
g57
(g78
g59
NtRp4533
(dp4534
g62
(dp4535
sg71
g4529
sg64
(lp4536
g57
(g58
g59
NtRp4537
(dp4538
g62
(dp4539
g70
I2
ssg71
g4533
sg64
(lp4540
g57
(g66
g59
NtRp4541
(dp4542
g62
(dp4543
g70
I1
ssg71
Nsg64
(lp4544
g57
(g73
g59
NtRp4545
(dp4546
g62
(dp4547
sg71
g4541
sg64
(lp4548
g57
(g78
g59
NtRp4549
(dp4550
g62
(dp4551
sg71
g4545
sg64
(lp4552
g57
(g58
g59
NtRp4553
(dp4554
g62
(dp4555
g70
I1
ssg71
g4549
sg64
(lp4556
S'Clientes Ligeros'
p4557
asbasbasbag57
(g73
g59
NtRp4558
(dp4559
g62
(dp4560
sg71
g4541
sg64
(lp4561
g57
(g78
g59
NtRp4562
(dp4563
g62
(dp4564
sg71
g4558
sg64
(lp4565
g57
(g58
g59
NtRp4566
(dp4567
g62
(dp4568
g70
I1
ssg71
g4562
sg64
(lp4569
I00
asbasbasbag57
(g73
g59
NtRp4570
(dp4571
g62
(dp4572
sg71
g4541
sg64
(lp4573
g57
(g78
g59
NtRp4574
(dp4575
g62
(dp4576
sg71
g4570
sg64
(lp4577
g57
(g58
g59
NtRp4578
(dp4579
g62
(dp4580
g70
I1
ssg71
g4574
sg64
(lp4581
S'/controlies/thinclients/index'
p4582
asbasbasbasbasbasbasbasbasbasbasbasbasbasbasbag57
(g73
g59
NtRp4583
(dp4584
g62
(dp4585
sg71
g4114
sg64
(lp4586
g57
(g78
g59
NtRp4587
(dp4588
g62
(dp4589
sg71
g4583
sg64
(lp4590
g57
(g58
g59
NtRp4591
(dp4592
g62
(dp4593
g70
I4
ssg71
g4587
sg64
(lp4594
g57
(g66
g59
NtRp4595
(dp4596
g62
(dp4597
g70
I3
ssg71
Nsg64
(lp4598
g57
(g73
g59
NtRp4599
(dp4600
g62
(dp4601
sg71
g4595
sg64
(lp4602
g57
(g78
g59
NtRp4603
(dp4604
g62
(dp4605
sg71
g4599
sg64
(lp4606
g57
(g58
g59
NtRp4607
(dp4608
g62
(dp4609
g70
I3
ssg71
g4603
sg64
(lp4610
S'Gesti\xc3\xb3n'
p4611
asbasbasbag57
(g73
g59
NtRp4612
(dp4613
g62
(dp4614
sg71
g4595
sg64
(lp4615
g57
(g78
g59
NtRp4616
(dp4617
g62
(dp4618
sg71
g4612
sg64
(lp4619
g57
(g58
g59
NtRp4620
(dp4621
g62
(dp4622
g70
I3
ssg71
g4616
sg64
(lp4623
g100
asbasbasbag57
(g73
g59
NtRp4624
(dp4625
g62
(dp4626
sg71
g4595
sg64
(lp4627
g57
(g78
g59
NtRp4628
(dp4629
g62
(dp4630
sg71
g4624
sg64
(lp4631
g57
(g58
g59
NtRp4632
(dp4633
g62
(dp4634
g70
I3
ssg71
g4628
sg64
(lp4635
S'None'
p4636
asbasbasbag57
(g73
g59
NtRp4637
(dp4638
g62
(dp4639
sg71
g4595
sg64
(lp4640
g57
(g78
g59
NtRp4641
(dp4642
g62
(dp4643
sg71
g4637
sg64
(lp4644
g57
(g58
g59
NtRp4645
(dp4646
g62
(dp4647
g70
I3
ssg71
g4641
sg64
(lp4648
g57
(g66
g59
NtRp4649
(dp4650
g62
(dp4651
g70
I2
ssg71
Nsg64
(lp4652
g57
(g73
g59
NtRp4653
(dp4654
g62
(dp4655
sg71
g4649
sg64
(lp4656
g57
(g78
g59
NtRp4657
(dp4658
g62
(dp4659
sg71
g4653
sg64
(lp4660
g57
(g58
g59
NtRp4661
(dp4662
g62
(dp4663
g70
I2
ssg71
g4657
sg64
(lp4664
g57
(g66
g59
NtRp4665
(dp4666
g62
(dp4667
g70
I1
ssg71
Nsg64
(lp4668
g57
(g73
g59
NtRp4669
(dp4670
g62
(dp4671
sg71
g4665
sg64
(lp4672
g57
(g78
g59
NtRp4673
(dp4674
g62
(dp4675
sg71
g4669
sg64
(lp4676
g57
(g58
g59
NtRp4677
(dp4678
g62
(dp4679
g70
I1
ssg71
g4673
sg64
(lp4680
S'Servidores de Aula'
p4681
asbasbasbag57
(g73
g59
NtRp4682
(dp4683
g62
(dp4684
sg71
g4665
sg64
(lp4685
g57
(g78
g59
NtRp4686
(dp4687
g62
(dp4688
sg71
g4682
sg64
(lp4689
g57
(g58
g59
NtRp4690
(dp4691
g62
(dp4692
g70
I1
ssg71
g4686
sg64
(lp4693
I00
asbasbasbag57
(g73
g59
NtRp4694
(dp4695
g62
(dp4696
sg71
g4665
sg64
(lp4697
g57
(g78
g59
NtRp4698
(dp4699
g62
(dp4700
sg71
g4694
sg64
(lp4701
g57
(g58
g59
NtRp4702
(dp4703
g62
(dp4704
g70
I1
ssg71
g4698
sg64
(lp4705
S'/controlies/gestion/servidores_aula'
p4706
asbasbasbasbasbasbasbag57
(g73
g59
NtRp4707
(dp4708
g62
(dp4709
sg71
g4649
sg64
(lp4710
g57
(g78
g59
NtRp4711
(dp4712
g62
(dp4713
sg71
g4707
sg64
(lp4714
g57
(g58
g59
NtRp4715
(dp4716
g62
(dp4717
g70
I2
ssg71
g4711
sg64
(lp4718
g57
(g66
g59
NtRp4719
(dp4720
g62
(dp4721
g70
I1
ssg71
Nsg64
(lp4722
g57
(g73
g59
NtRp4723
(dp4724
g62
(dp4725
sg71
g4719
sg64
(lp4726
g57
(g78
g59
NtRp4727
(dp4728
g62
(dp4729
sg71
g4723
sg64
(lp4730
g57
(g58
g59
NtRp4731
(dp4732
g62
(dp4733
g70
I1
ssg71
g4727
sg64
(lp4734
S'Importaci\xc3\xb3n de Rayuela'
p4735
asbasbasbag57
(g73
g59
NtRp4736
(dp4737
g62
(dp4738
sg71
g4719
sg64
(lp4739
g57
(g78
g59
NtRp4740
(dp4741
g62
(dp4742
sg71
g4736
sg64
(lp4743
g57
(g58
g59
NtRp4744
(dp4745
g62
(dp4746
g70
I1
ssg71
g4740
sg64
(lp4747
I00
asbasbasbag57
(g73
g59
NtRp4748
(dp4749
g62
(dp4750
sg71
g4719
sg64
(lp4751
g57
(g78
g59
NtRp4752
(dp4753
g62
(dp4754
sg71
g4748
sg64
(lp4755
g57
(g58
g59
NtRp4756
(dp4757
g62
(dp4758
g70
I1
ssg71
g4752
sg64
(lp4759
S'/controlies/gestion/rayuela'
p4760
asbasbasbasbasbasbasbasbasbasbasbasbasbasbasbag57
(g73
g59
NtRp4761
(dp4762
g62
(dp4763
sg71
g4114
sg64
(lp4764
g57
(g78
g59
NtRp4765
(dp4766
g62
(dp4767
sg71
g4761
sg64
(lp4768
g57
(g58
g59
NtRp4769
(dp4770
g62
(dp4771
g70
I4
ssg71
g4765
sg64
(lp4772
g57
(g66
g59
NtRp4773
(dp4774
g62
(dp4775
g70
I3
ssg71
Nsg64
(lp4776
g57
(g73
g59
NtRp4777
(dp4778
g62
(dp4779
sg71
g4773
sg64
(lp4780
g57
(g78
g59
NtRp4781
(dp4782
g62
(dp4783
sg71
g4777
sg64
(lp4784
g57
(g58
g59
NtRp4785
(dp4786
g62
(dp4787
g70
I3
ssg71
g4781
sg64
(lp4788
S'Base de Datos'
p4789
asbasbasbag57
(g73
g59
NtRp4790
(dp4791
g62
(dp4792
sg71
g4773
sg64
(lp4793
g57
(g78
g59
NtRp4794
(dp4795
g62
(dp4796
sg71
g4790
sg64
(lp4797
g57
(g58
g59
NtRp4798
(dp4799
g62
(dp4800
g70
I3
ssg71
g4794
sg64
(lp4801
g100
asbasbasbag57
(g73
g59
NtRp4802
(dp4803
g62
(dp4804
sg71
g4773
sg64
(lp4805
g57
(g78
g59
NtRp4806
(dp4807
g62
(dp4808
sg71
g4802
sg64
(lp4809
g57
(g58
g59
NtRp4810
(dp4811
g62
(dp4812
g70
I3
ssg71
g4806
sg64
(lp4813
S'None'
p4814
asbasbasbag57
(g73
g59
NtRp4815
(dp4816
g62
(dp4817
sg71
g4773
sg64
(lp4818
g57
(g78
g59
NtRp4819
(dp4820
g62
(dp4821
sg71
g4815
sg64
(lp4822
g57
(g58
g59
NtRp4823
(dp4824
g62
(dp4825
g70
I3
ssg71
g4819
sg64
(lp4826
g57
(g66
g59
NtRp4827
(dp4828
g62
(dp4829
g70
I2
ssg71
Nsg64
(lp4830
g57
(g73
g59
NtRp4831
(dp4832
g62
(dp4833
sg71
g4827
sg64
(lp4834
g57
(g78
g59
NtRp4835
(dp4836
g62
(dp4837
sg71
g4831
sg64
(lp4838
g57
(g58
g59
NtRp4839
(dp4840
g62
(dp4841
g70
I2
ssg71
g4835
sg64
(lp4842
g57
(g66
g59
NtRp4843
(dp4844
g62
(dp4845
g70
I1
ssg71
Nsg64
(lp4846
g57
(g73
g59
NtRp4847
(dp4848
g62
(dp4849
sg71
g4843
sg64
(lp4850
g57
(g78
g59
NtRp4851
(dp4852
g62
(dp4853
sg71
g4847
sg64
(lp4854
g57
(g58
g59
NtRp4855
(dp4856
g62
(dp4857
g70
I1
ssg71
g4851
sg64
(lp4858
g4503
asbasbasbag57
(g73
g59
NtRp4859
(dp4860
g62
(dp4861
sg71
g4843
sg64
(lp4862
g57
(g78
g59
NtRp4863
(dp4864
g62
(dp4865
sg71
g4859
sg64
(lp4866
g57
(g58
g59
NtRp4867
(dp4868
g62
(dp4869
g70
I1
ssg71
g4863
sg64
(lp4870
I00
asbasbasbag57
(g73
g59
NtRp4871
(dp4872
g62
(dp4873
sg71
g4843
sg64
(lp4874
g57
(g78
g59
NtRp4875
(dp4876
g62
(dp4877
sg71
g4871
sg64
(lp4878
g57
(g58
g59
NtRp4879
(dp4880
g62
(dp4881
g70
I1
ssg71
g4875
sg64
(lp4882
S'/controlies/laptops/index'
p4883
asbasbasbasbasbasbasbag57
(g73
g59
NtRp4884
(dp4885
g62
(dp4886
sg71
g4827
sg64
(lp4887
g57
(g78
g59
NtRp4888
(dp4889
g62
(dp4890
sg71
g4884
sg64
(lp4891
g57
(g58
g59
NtRp4892
(dp4893
g62
(dp4894
g70
I2
ssg71
g4888
sg64
(lp4895
g57
(g66
g59
NtRp4896
(dp4897
g62
(dp4898
g70
I1
ssg71
Nsg64
(lp4899
g57
(g73
g59
NtRp4900
(dp4901
g62
(dp4902
sg71
g4896
sg64
(lp4903
g57
(g78
g59
NtRp4904
(dp4905
g62
(dp4906
sg71
g4900
sg64
(lp4907
g57
(g58
g59
NtRp4908
(dp4909
g62
(dp4910
g70
I1
ssg71
g4904
sg64
(lp4911
g4341
asbasbasbag57
(g73
g59
NtRp4912
(dp4913
g62
(dp4914
sg71
g4896
sg64
(lp4915
g57
(g78
g59
NtRp4916
(dp4917
g62
(dp4918
sg71
g4912
sg64
(lp4919
g57
(g58
g59
NtRp4920
(dp4921
g62
(dp4922
g70
I1
ssg71
g4916
sg64
(lp4923
I00
asbasbasbag57
(g73
g59
NtRp4924
(dp4925
g62
(dp4926
sg71
g4896
sg64
(lp4927
g57
(g78
g59
NtRp4928
(dp4929
g62
(dp4930
sg71
g4924
sg64
(lp4931
g57
(g58
g59
NtRp4932
(dp4933
g62
(dp4934
g70
I1
ssg71
g4928
sg64
(lp4935
S'/controlies/laptops_groups/index'
p4936
asbasbasbasbasbasbasbag57
(g73
g59
NtRp4937
(dp4938
g62
(dp4939
sg71
g4827
sg64
(lp4940
g57
(g78
g59
NtRp4941
(dp4942
g62
(dp4943
sg71
g4937
sg64
(lp4944
g57
(g58
g59
NtRp4945
(dp4946
g62
(dp4947
g70
I2
ssg71
g4941
sg64
(lp4948
g57
(g66
g59
NtRp4949
(dp4950
g62
(dp4951
g70
I1
ssg71
Nsg64
(lp4952
g57
(g73
g59
NtRp4953
(dp4954
g62
(dp4955
sg71
g4949
sg64
(lp4956
g57
(g78
g59
NtRp4957
(dp4958
g62
(dp4959
sg71
g4953
sg64
(lp4960
g57
(g58
g59
NtRp4961
(dp4962
g62
(dp4963
g70
I1
ssg71
g4957
sg64
(lp4964
S'Marcas'
p4965
asbasbasbag57
(g73
g59
NtRp4966
(dp4967
g62
(dp4968
sg71
g4949
sg64
(lp4969
g57
(g78
g59
NtRp4970
(dp4971
g62
(dp4972
sg71
g4966
sg64
(lp4973
g57
(g58
g59
NtRp4974
(dp4975
g62
(dp4976
g70
I1
ssg71
g4970
sg64
(lp4977
I00
asbasbasbag57
(g73
g59
NtRp4978
(dp4979
g62
(dp4980
sg71
g4949
sg64
(lp4981
g57
(g78
g59
NtRp4982
(dp4983
g62
(dp4984
sg71
g4978
sg64
(lp4985
g57
(g58
g59
NtRp4986
(dp4987
g62
(dp4988
g70
I1
ssg71
g4982
sg64
(lp4989
S'/controlies/laptops_trademarks/index'
p4990
asbasbasbasbasbasbasbasbasbasbasbasbasbasbasbag57
(g73
g59
NtRp4991
(dp4992
g62
(dp4993
sg71
g4114
sg64
(lp4994
g57
(g78
g59
NtRp4995
(dp4996
g62
(dp4997
sg71
g4991
sg64
(lp4998
g57
(g58
g59
NtRp4999
(dp5000
g62
(dp5001
g70
I4
ssg71
g4995
sg64
(lp5002
g57
(g66
g59
NtRp5003
(dp5004
g62
(dp5005
g70
I3
ssg71
Nsg64
(lp5006
g57
(g73
g59
NtRp5007
(dp5008
g62
(dp5009
sg71
g5003
sg64
(lp5010
g57
(g78
g59
NtRp5011
(dp5012
g62
(dp5013
sg71
g5007
sg64
(lp5014
g57
(g58
g59
NtRp5015
(dp5016
g62
(dp5017
g70
I3
ssg71
g5011
sg64
(lp5018
S'Informes'
p5019
asbasbasbag57
(g73
g59
NtRp5020
(dp5021
g62
(dp5022
sg71
g5003
sg64
(lp5023
g57
(g78
g59
NtRp5024
(dp5025
g62
(dp5026
sg71
g5020
sg64
(lp5027
g57
(g58
g59
NtRp5028
(dp5029
g62
(dp5030
g70
I3
ssg71
g5024
sg64
(lp5031
g100
asbasbasbag57
(g73
g59
NtRp5032
(dp5033
g62
(dp5034
sg71
g5003
sg64
(lp5035
g57
(g78
g59
NtRp5036
(dp5037
g62
(dp5038
sg71
g5032
sg64
(lp5039
g57
(g58
g59
NtRp5040
(dp5041
g62
(dp5042
g70
I3
ssg71
g5036
sg64
(lp5043
S'None'
p5044
asbasbasbag57
(g73
g59
NtRp5045
(dp5046
g62
(dp5047
sg71
g5003
sg64
(lp5048
g57
(g78
g59
NtRp5049
(dp5050
g62
(dp5051
sg71
g5045
sg64
(lp5052
g57
(g58
g59
NtRp5053
(dp5054
g62
(dp5055
g70
I3
ssg71
g5049
sg64
(lp5056
g57
(g66
g59
NtRp5057
(dp5058
g62
(dp5059
g70
I2
ssg71
Nsg64
(lp5060
g57
(g73
g59
NtRp5061
(dp5062
g62
(dp5063
sg71
g5057
sg64
(lp5064
g57
(g78
g59
NtRp5065
(dp5066
g62
(dp5067
sg71
g5061
sg64
(lp5068
g57
(g58
g59
NtRp5069
(dp5070
g62
(dp5071
g70
I2
ssg71
g5065
sg64
(lp5072
g57
(g66
g59
NtRp5073
(dp5074
g62
(dp5075
g70
I1
ssg71
Nsg64
(lp5076
g57
(g73
g59
NtRp5077
(dp5078
g62
(dp5079
sg71
g5073
sg64
(lp5080
g57
(g78
g59
NtRp5081
(dp5082
g62
(dp5083
sg71
g5077
sg64
(lp5084
g57
(g58
g59
NtRp5085
(dp5086
g62
(dp5087
g70
I1
ssg71
g5081
sg64
(lp5088
S'Compromisos Port\xc3\xa1tiles'
p5089
asbasbasbag57
(g73
g59
NtRp5090
(dp5091
g62
(dp5092
sg71
g5073
sg64
(lp5093
g57
(g78
g59
NtRp5094
(dp5095
g62
(dp5096
sg71
g5090
sg64
(lp5097
g57
(g58
g59
NtRp5098
(dp5099
g62
(dp5100
g70
I1
ssg71
g5094
sg64
(lp5101
I00
asbasbasbag57
(g73
g59
NtRp5102
(dp5103
g62
(dp5104
sg71
g5073
sg64
(lp5105
g57
(g78
g59
NtRp5106
(dp5107
g62
(dp5108
sg71
g5102
sg64
(lp5109
g57
(g58
g59
NtRp5110
(dp5111
g62
(dp5112
g70
I1
ssg71
g5106
sg64
(lp5113
S'/controlies/reports/laptops'
p5114
asbasbasbasbasbasbasbasbasbasbasbasbasbasbasbag57
(g73
g59
NtRp5115
(dp5116
g62
(dp5117
sg71
g4114
sg64
(lp5118
g57
(g78
g59
NtRp5119
(dp5120
g62
(dp5121
sg71
g5115
sg64
(lp5122
g57
(g58
g59
NtRp5123
(dp5124
g62
(dp5125
g70
I4
ssg71
g5119
sg64
(lp5126
g57
(g66
g59
NtRp5127
(dp5128
g62
(dp5129
g70
I3
ssg71
Nsg64
(lp5130
g57
(g73
g59
NtRp5131
(dp5132
g62
(dp5133
sg71
g5127
sg64
(lp5134
g57
(g78
g59
NtRp5135
(dp5136
g62
(dp5137
sg71
g5131
sg64
(lp5138
g57
(g58
g59
NtRp5139
(dp5140
g62
(dp5141
g70
I3
ssg71
g5135
sg64
(lp5142
S'Acerca de'
p5143
asbasbasbag57
(g73
g59
NtRp5144
(dp5145
g62
(dp5146
sg71
g5127
sg64
(lp5147
g57
(g78
g59
NtRp5148
(dp5149
g62
(dp5150
sg71
g5144
sg64
(lp5151
g57
(g58
g59
NtRp5152
(dp5153
g62
(dp5154
g70
I3
ssg71
g5148
sg64
(lp5155
g100
asbasbasbag57
(g73
g59
NtRp5156
(dp5157
g62
(dp5158
sg71
g5127
sg64
(lp5159
g57
(g78
g59
NtRp5160
(dp5161
g62
(dp5162
sg71
g5156
sg64
(lp5163
g57
(g58
g59
NtRp5164
(dp5165
g62
(dp5166
g70
I3
ssg71
g5160
sg64
(lp5167
S'javascript:showInfo()'
p5168
asbasbasbasbasbasbasbag57
(g73
g59
NtRp5169
(dp5170
g62
(dp5171
sg71
g4114
sg64
(lp5172
g57
(g78
g59
NtRp5173
(dp5174
g62
(dp5175
sg71
g5169
sg64
(lp5176
g57
(g58
g59
NtRp5177
(dp5178
g62
(dp5179
g70
I4
ssg71
g5173
sg64
(lp5180
g57
(g66
g59
NtRp5181
(dp5182
g62
(dp5183
g70
I3
ssg71
Nsg64
(lp5184
g57
(g73
g59
NtRp5185
(dp5186
g62
(dp5187
sg71
g5181
sg64
(lp5188
g57
(g78
g59
NtRp5189
(dp5190
g62
(dp5191
sg71
g5185
sg64
(lp5192
g57
(g58
g59
NtRp5193
(dp5194
g62
(dp5195
g70
I3
ssg71
g5189
sg64
(lp5196
g57
(g66
g59
NtRp5197
(dp5198
g62
(dp5199
g70
I2
ssg71
Nsg64
(lp5200
g57
(g73
g59
NtRp5201
(dp5202
g62
(dp5203
sg71
g5197
sg64
(lp5204
g57
(g78
g59
NtRp5205
(dp5206
g62
(dp5207
sg71
g5201
sg64
(lp5208
g57
(g58
g59
NtRp5209
(dp5210
g62
(dp5211
g70
I2
ssg71
g5205
sg64
(lp5212
S'Mantenimiento de LDAP'
p5213
asbasbasbag57
(g73
g59
NtRp5214
(dp5215
g62
(dp5216
sg71
g5197
sg64
(lp5217
g57
(g78
g59
NtRp5218
(dp5219
g62
(dp5220
sg71
g5214
sg64
(lp5221
g57
(g58
g59
NtRp5222
(dp5223
g62
(dp5224
g70
I2
ssg71
g5218
sg64
(lp5225
g100
asbasbasbag57
(g73
g59
NtRp5226
(dp5227
g62
(dp5228
sg71
g5197
sg64
(lp5229
g57
(g78
g59
NtRp5230
(dp5231
g62
(dp5232
sg71
g5226
sg64
(lp5233
g57
(g58
g59
NtRp5234
(dp5235
g62
(dp5236
g70
I2
ssg71
g5230
sg64
(lp5237
S'None'
p5238
asbasbasbag57
(g73
g59
NtRp5239
(dp5240
g62
(dp5241
sg71
g5197
sg64
(lp5242
g57
(g78
g59
NtRp5243
(dp5244
g62
(dp5245
sg71
g5239
sg64
(lp5246
g57
(g58
g59
NtRp5247
(dp5248
g62
(dp5249
g70
I2
ssg71
g5243
sg64
(lp5250
g57
(g66
g59
NtRp5251
(dp5252
g62
(dp5253
g70
I1
ssg71
Nsg64
(lp5254
g57
(g73
g59
NtRp5255
(dp5256
g62
(dp5257
sg71
g5251
sg64
(lp5258
g57
(g78
g59
NtRp5259
(dp5260
g62
(dp5261
sg71
g5255
sg64
(lp5262
g57
(g58
g59
NtRp5263
(dp5264
g62
(dp5265
g70
I1
ssg71
g5259
sg64
(lp5266
(S'Limpieza de usuarios inexistentes en grupos'
I00
S'/controlies/gestion/limpieza_usuarios'
tp5267
asbasbasbag57
(g73
g59
NtRp5268
(dp5269
g62
(dp5270
sg71
g5251
sg64
(lp5271
g57
(g78
g59
NtRp5272
(dp5273
g62
(dp5274
sg71
g5268
sg64
(lp5275
g57
(g58
g59
NtRp5276
(dp5277
g62
(dp5278
g70
I1
ssg71
g5272
sg64
(lp5279
(S'Detecci\xc3\xb3n de uid o gid duplicados'
I00
S'/controlies/gestion/duplicados'
tp5280
asbasbasbasbasbasbasbasbasbasbasbasbasbasbasbasbasbasbasbag57
(g73
g59
NtRp5281
(dp5282
g62
(dp5283
sg71
g3469
sg64
(lp5284
g57
(g78
g59
NtRp5285
(dp5286
g62
(dp5287
g82
g83
ssg71
g5281
sg64
(lp5288
S'meta'
p5289
asbag57
(g78
g59
NtRp5290
(dp5291
g62
(dp5292
g89
g90
ssg71
g5281
sg64
(lp5293
S':'
asbag57
(g78
g59
NtRp5294
(dp5295
g62
(dp5296
sg71
g5281
sg64
(lp5297
g57
(g58
g59
NtRp5298
(dp5299
g62
(dp5300
g70
I5
ssg71
g5294
sg64
(lp5301
g57
(g66
g59
NtRp5302
(dp5303
g62
(dp5304
g70
I4
ssg71
Nsg64
(lp5305
g57
(g73
g59
NtRp5306
(dp5307
g62
(dp5308
sg71
g5302
sg64
(lp5309
g57
(g78
g59
NtRp5310
(dp5311
g62
(dp5312
g82
g83
ssg71
g5306
sg64
(lp5313
S'author'
p5314
asbag57
(g78
g59
NtRp5315
(dp5316
g62
(dp5317
g89
g90
ssg71
g5306
sg64
(lp5318
S':'
asbag57
(g78
g59
NtRp5319
(dp5320
g62
(dp5321
sg71
g5306
sg64
(lp5322
g57
(g58
g59
NtRp5323
(dp5324
g62
(dp5325
g70
I4
ssg71
g5319
sg64
(lp5326
S'manuito chischo jredrejo'
p5327
asbasbasbag57
(g73
g59
NtRp5328
(dp5329
g62
(dp5330
sg71
g5302
sg64
(lp5331
g57
(g78
g59
NtRp5332
(dp5333
g62
(dp5334
g82
g83
ssg71
g5328
sg64
(lp5335
S'copyright'
p5336
asbag57
(g78
g59
NtRp5337
(dp5338
g62
(dp5339
g89
g90
ssg71
g5328
sg64
(lp5340
S':'
asbag57
(g78
g59
NtRp5341
(dp5342
g62
(dp5343
sg71
g5328
sg64
(lp5344
g57
(g58
g59
NtRp5345
(dp5346
g62
(dp5347
g70
I4
ssg71
g5341
sg64
(lp5348
S'Copyright 2010-2012'
p5349
asbasbasbag57
(g73
g59
NtRp5350
(dp5351
g62
(dp5352
sg71
g5302
sg64
(lp5353
g57
(g78
g59
NtRp5354
(dp5355
g62
(dp5356
g82
g83
ssg71
g5350
sg64
(lp5357
S'description'
p5358
asbag57
(g78
g59
NtRp5359
(dp5360
g62
(dp5361
g89
g90
ssg71
g5350
sg64
(lp5362
S':'
asbag57
(g78
g59
NtRp5363
(dp5364
g62
(dp5365
sg71
g5350
sg64
(lp5366
g57
(g58
g59
NtRp5367
(dp5368
g62
(dp5369
g70
I4
ssg71
g5363
sg64
(lp5370
S'Aplicaci\xc3\xb3n para la gesti\xc3\xb3n de usuarios y m\xc3\xa1quinas en los centros educativos de Extremadura'
p5371
asbasbasbag57
(g73
g59
NtRp5372
(dp5373
g62
(dp5374
sg71
g5302
sg64
(lp5375
g57
(g78
g59
NtRp5376
(dp5377
g62
(dp5378
g82
g83
ssg71
g5372
sg64
(lp5379
S'generator'
p5380
asbag57
(g78
g59
NtRp5381
(dp5382
g62
(dp5383
g89
g90
ssg71
g5372
sg64
(lp5384
S':'
asbag57
(g78
g59
NtRp5385
(dp5386
g62
(dp5387
sg71
g5372
sg64
(lp5388
g57
(g58
g59
NtRp5389
(dp5390
g62
(dp5391
g70
I4
ssg71
g5385
sg64
(lp5392
S'Web2py Enterprise Framework'
p5393
asbasbasbag57
(g73
g59
NtRp5394
(dp5395
g62
(dp5396
sg71
g5302
sg64
(lp5397
g57
(g78
g59
NtRp5398
(dp5399
g62
(dp5400
g82
g83
ssg71
g5394
sg64
(lp5401
S'keywords'
p5402
asbag57
(g78
g59
NtRp5403
(dp5404
g62
(dp5405
g89
g90
ssg71
g5394
sg64
(lp5406
S':'
asbag57
(g78
g59
NtRp5407
(dp5408
g62
(dp5409
sg71
g5394
sg64
(lp5410
g57
(g58
g59
NtRp5411
(dp5412
g62
(dp5413
g70
I4
ssg71
g5407
sg64
(lp5414
S'ldap, rayuela, linex,extremadura, institutos,usuarios,m\xc3\xa1quinas, workstations,ltsp'
p5415
asbasbasbasbasbasbasbag57
(g73
g59
NtRp5416
(dp5417
g62
(dp5418
sg71
g3469
sg64
(lp5419
g57
(g78
g59
NtRp5420
(dp5421
g62
(dp5422
g82
g83
ssg71
g5416
sg64
(lp5423
S'models_to_run'
p5424
asbag57
(g78
g59
NtRp5425
(dp5426
g62
(dp5427
g89
g90
ssg71
g5416
sg64
(lp5428
S':'
asbag57
(g78
g59
NtRp5429
(dp5430
g62
(dp5431
sg71
g5416
sg64
(lp5432
g57
(g58
g59
NtRp5433
(dp5434
g62
(dp5435
g70
I5
ssg71
g5429
sg64
(lp5436
g57
(g66
g59
NtRp5437
(dp5438
g62
(dp5439
g70
I4
ssg71
Nsg64
(lp5440
g57
(g73
g59
NtRp5441
(dp5442
g62
(dp5443
sg71
g5437
sg64
(lp5444
g57
(g78
g59
NtRp5445
(dp5446
g62
(dp5447
sg71
g5441
sg64
(lp5448
g57
(g58
g59
NtRp5449
(dp5450
g62
(dp5451
g70
I4
ssg71
g5445
sg64
(lp5452
S'^\\w+\\.py$'
p5453
asbasbasbag57
(g73
g59
NtRp5454
(dp5455
g62
(dp5456
sg71
g5437
sg64
(lp5457
g57
(g78
g59
NtRp5458
(dp5459
g62
(dp5460
sg71
g5454
sg64
(lp5461
g57
(g58
g59
NtRp5462
(dp5463
g62
(dp5464
g70
I4
ssg71
g5458
sg64
(lp5465
S'^default/\\w+\\.py$'
p5466
asbasbasbag57
(g73
g59
NtRp5467
(dp5468
g62
(dp5469
sg71
g5437
sg64
(lp5470
g57
(g78
g59
NtRp5471
(dp5472
g62
(dp5473
sg71
g5467
sg64
(lp5474
g57
(g58
g59
NtRp5475
(dp5476
g62
(dp5477
g70
I4
ssg71
g5471
sg64
(lp5478
S'^default/index/\\w+\\.py$'
p5479
asbasbasbasbasbasbasbag57
(g73
g59
NtRp5480
(dp5481
g62
(dp5482
sg71
g3469
sg64
(lp5483
g57
(g78
g59
NtRp5484
(dp5485
g62
(dp5486
g82
g83
ssg71
g5480
sg64
(lp5487
S'postprocessing'
p5488
asbag57
(g78
g59
NtRp5489
(dp5490
g62
(dp5491
g89
g90
ssg71
g5480
sg64
(lp5492
S':'
asbag57
(g78
g59
NtRp5493
(dp5494
g62
(dp5495
sg71
g5480
sg64
(lp5496
g57
(g58
g59
NtRp5497
(dp5498
g62
(dp5499
g70
I5
ssg71
g5493
sg64
(lp5500
g57
(g66
g59
NtRp5501
(dp5502
g62
(dp5503
g70
I4
ssg71
Nsg64
(lp5504
sbasbasbasbag57
(g73
g59
NtRp5505
(dp5506
g62
(dp5507
sg71
g3469
sg64
(lp5508
g57
(g78
g59
NtRp5509
(dp5510
g62
(dp5511
g82
g83
ssg71
g5505
sg64
(lp5512
S'session_cookie_expires'
p5513
asbag57
(g78
g59
NtRp5514
(dp5515
g62
(dp5516
g89
g90
ssg71
g5505
sg64
(lp5517
S':'
asbag57
(g78
g59
NtRp5518
(dp5519
g62
(dp5520
sg71
g5505
sg64
(lp5521
g57
(g58
g59
NtRp5522
(dp5523
g62
(dp5524
g70
I5
ssg71
g5518
sg64
(lp5525
S'None'
p5526
asbasbasbag57
(g73
g59
NtRp5527
(dp5528
g62
(dp5529
sg71
g3469
sg64
(lp5530
g57
(g78
g59
NtRp5531
(dp5532
g62
(dp5533
g82
g83
ssg71
g5527
sg64
(lp5534
S'session_data_name'
p5535
asbag57
(g78
g59
NtRp5536
(dp5537
g62
(dp5538
g89
g90
ssg71
g5527
sg64
(lp5539
S':'
asbag57
(g78
g59
NtRp5540
(dp5541
g62
(dp5542
sg71
g5527
sg64
(lp5543
g57
(g58
g59
NtRp5544
(dp5545
g62
(dp5546
g70
I5
ssg71
g5540
sg64
(lp5547
S'session_data_controlies'
p5548
asbasbasbag57
(g73
g59
NtRp5549
(dp5550
g62
(dp5551
sg71
g3469
sg64
(lp5552
g57
(g78
g59
NtRp5553
(dp5554
g62
(dp5555
g82
g83
ssg71
g5549
sg64
(lp5556
S'session_file'
p5557
asbag57
(g78
g59
NtRp5558
(dp5559
g62
(dp5560
g89
g90
ssg71
g5549
sg64
(lp5561
S':'
asbag57
(g78
g59
NtRp5562
(dp5563
g62
(dp5564
sg71
g5549
sg64
(lp5565
g57
(g58
g59
NtRp5566
(dp5567
g62
(dp5568
g70
I5
ssg71
g5562
sg64
(lp5569
S"<open file '/home/manu/proyectos/web2py/applications/controlies/sessions/127.0.0.1-6177c4d9-9791-4517-8f7c-bd3585dbb683', mode 'rb+' at 0xa6a66a8>"
p5570
asbasbasbag57
(g73
g59
NtRp5571
(dp5572
g62
(dp5573
sg71
g3469
sg64
(lp5574
g57
(g78
g59
NtRp5575
(dp5576
g62
(dp5577
g82
g83
ssg71
g5571
sg64
(lp5578
S'session_filename'
p5579
asbag57
(g78
g59
NtRp5580
(dp5581
g62
(dp5582
g89
g90
ssg71
g5571
sg64
(lp5583
S':'
asbag57
(g78
g59
NtRp5584
(dp5585
g62
(dp5586
sg71
g5571
sg64
(lp5587
g57
(g58
g59
NtRp5588
(dp5589
g62
(dp5590
g70
I5
ssg71
g5584
sg64
(lp5591
S'/home/manu/proyectos/web2py/applications/controlies/sessions/127.0.0.1-6177c4d9-9791-4517-8f7c-bd3585dbb683'
p5592
asbasbasbag57
(g73
g59
NtRp5593
(dp5594
g62
(dp5595
sg71
g3469
sg64
(lp5596
g57
(g78
g59
NtRp5597
(dp5598
g62
(dp5599
g82
g83
ssg71
g5593
sg64
(lp5600
S'session_id'
p5601
asbag57
(g78
g59
NtRp5602
(dp5603
g62
(dp5604
g89
g90
ssg71
g5593
sg64
(lp5605
S':'
asbag57
(g78
g59
NtRp5606
(dp5607
g62
(dp5608
sg71
g5593
sg64
(lp5609
g57
(g58
g59
NtRp5610
(dp5611
g62
(dp5612
g70
I5
ssg71
g5606
sg64
(lp5613
g281
asbasbasbag57
(g73
g59
NtRp5614
(dp5615
g62
(dp5616
sg71
g3469
sg64
(lp5617
g57
(g78
g59
NtRp5618
(dp5619
g62
(dp5620
g82
g83
ssg71
g5614
sg64
(lp5621
S'session_id_name'
p5622
asbag57
(g78
g59
NtRp5623
(dp5624
g62
(dp5625
g89
g90
ssg71
g5614
sg64
(lp5626
S':'
asbag57
(g78
g59
NtRp5627
(dp5628
g62
(dp5629
sg71
g5614
sg64
(lp5630
g57
(g58
g59
NtRp5631
(dp5632
g62
(dp5633
g70
I5
ssg71
g5627
sg64
(lp5634
g3526
asbasbasbag57
(g73
g59
NtRp5635
(dp5636
g62
(dp5637
sg71
g3469
sg64
(lp5638
g57
(g78
g59
NtRp5639
(dp5640
g62
(dp5641
g82
g83
ssg71
g5635
sg64
(lp5642
S'session_locked'
p5643
asbag57
(g78
g59
NtRp5644
(dp5645
g62
(dp5646
g89
g90
ssg71
g5635
sg64
(lp5647
S':'
asbag57
(g78
g59
NtRp5648
(dp5649
g62
(dp5650
sg71
g5635
sg64
(lp5651
g57
(g58
g59
NtRp5652
(dp5653
g62
(dp5654
g70
I5
ssg71
g5648
sg64
(lp5655
g1418
asbasbasbag57
(g73
g59
NtRp5656
(dp5657
g62
(dp5658
sg71
g3469
sg64
(lp5659
g57
(g78
g59
NtRp5660
(dp5661
g62
(dp5662
g82
g83
ssg71
g5656
sg64
(lp5663
S'session_new'
p5664
asbag57
(g78
g59
NtRp5665
(dp5666
g62
(dp5667
g89
g90
ssg71
g5656
sg64
(lp5668
S':'
asbag57
(g78
g59
NtRp5669
(dp5670
g62
(dp5671
sg71
g5656
sg64
(lp5672
g57
(g58
g59
NtRp5673
(dp5674
g62
(dp5675
g70
I5
ssg71
g5669
sg64
(lp5676
g100
asbasbasbag57
(g73
g59
NtRp5677
(dp5678
g62
(dp5679
sg71
g3469
sg64
(lp5680
g57
(g78
g59
NtRp5681
(dp5682
g62
(dp5683
g82
g83
ssg71
g5677
sg64
(lp5684
S'session_storage_type'
p5685
asbag57
(g78
g59
NtRp5686
(dp5687
g62
(dp5688
g89
g90
ssg71
g5677
sg64
(lp5689
S':'
asbag57
(g78
g59
NtRp5690
(dp5691
g62
(dp5692
sg71
g5677
sg64
(lp5693
g57
(g58
g59
NtRp5694
(dp5695
g62
(dp5696
g70
I5
ssg71
g5690
sg64
(lp5697
g2871
asbasbasbag57
(g73
g59
NtRp5698
(dp5699
g62
(dp5700
sg71
g3469
sg64
(lp5701
g57
(g78
g59
NtRp5702
(dp5703
g62
(dp5704
g82
g83
ssg71
g5698
sg64
(lp5705
S'status'
p5706
asbag57
(g78
g59
NtRp5707
(dp5708
g62
(dp5709
g89
g90
ssg71
g5698
sg64
(lp5710
S':'
asbag57
(g78
g59
NtRp5711
(dp5712
g62
(dp5713
sg71
g5698
sg64
(lp5714
g57
(g58
g59
NtRp5715
(dp5716
g62
(dp5717
g70
I5
ssg71
g5711
sg64
(lp5718
S'200'
p5719
asbasbasbag57
(g73
g59
NtRp5720
(dp5721
g62
(dp5722
sg71
g3469
sg64
(lp5723
g57
(g78
g59
NtRp5724
(dp5725
g62
(dp5726
g82
g83
ssg71
g5720
sg64
(lp5727
S'subtitle'
p5728
asbag57
(g78
g59
NtRp5729
(dp5730
g62
(dp5731
g89
g90
ssg71
g5720
sg64
(lp5732
S':'
asbag57
(g78
g59
NtRp5733
(dp5734
g62
(dp5735
sg71
g5720
sg64
(lp5736
g57
(g58
g59
NtRp5737
(dp5738
g62
(dp5739
g70
I5
ssg71
g5733
sg64
(lp5740
S'Centros educativos de Extremadura'
p5741
asbasbasbag57
(g73
g59
NtRp5742
(dp5743
g62
(dp5744
sg71
g3469
sg64
(lp5745
g57
(g78
g59
NtRp5746
(dp5747
g62
(dp5748
g82
g83
ssg71
g5742
sg64
(lp5749
S'title'
p5750
asbag57
(g78
g59
NtRp5751
(dp5752
g62
(dp5753
g89
g90
ssg71
g5742
sg64
(lp5754
S':'
asbag57
(g78
g59
NtRp5755
(dp5756
g62
(dp5757
sg71
g5742
sg64
(lp5758
g57
(g58
g59
NtRp5759
(dp5760
g62
(dp5761
g70
I5
ssg71
g5755
sg64
(lp5762
S'ControlIES'
p5763
asbasbasbag57
(g73
g59
NtRp5764
(dp5765
g62
(dp5766
sg71
g3469
sg64
(lp5767
g57
(g78
g59
NtRp5768
(dp5769
g62
(dp5770
g82
g83
ssg71
g5764
sg64
(lp5771
S'view'
p5772
asbag57
(g78
g59
NtRp5773
(dp5774
g62
(dp5775
g89
g90
ssg71
g5764
sg64
(lp5776
S':'
asbag57
(g78
g59
NtRp5777
(dp5778
g62
(dp5779
sg71
g5764
sg64
(lp5780
g57
(g58
g59
NtRp5781
(dp5782
g62
(dp5783
g70
I5
ssg71
g5777
sg64
(lp5784
S'default/index.html'
p5785
asbasbasbasbasbsS'locals'
p5786
(dp5787
S'name'
p5788
S"'Acerca de'"
p5789
sS'item'
p5790
S"[('Mantenimiento de LDAP', False, None, [('Limpieza de usuarios inexistentes en grupos', False, '/controlies/gestion/limpieza_usuarios'), ('Detecci\\xc3\\xb3n de uid o gid duplicados', False, '/controlies/gestion/duplicados')])]"
p5791
sS'self'
p5792
S'<gluon.html.MENU object>'
p5793
sg70
S'0'
sS'li'
p5794
S'<gluon.html.LI object>'
p5795
sS'ul'
p5796
S'<gluon.html.UL object>'
p5797
sS'link'
p5798
S"'javascript:showInfo()'"
p5799
sS'active'
p5800
g100
sS'data'
p5801
S"[(<lazyT 'Home'>, False, '/controlies/default/index', []), ('LDAP', False, None, [('Usuarios', False, '/controlies/usuarios/index'), ('Grupos', False, '/controlies/grupos/index'), ('Servidores LTSP', False, '/controlies/hosts/ltspservers'), ('Workstations', False, '/controlies/hosts/workstations'), ('Port\\xc3\\xa1tiles', False, '/controlies/hosts/laptops'), ('Clientes Ligeros', False, '/controlies/thinclients/index')]), ('Gesti\\xc3\\xb3n', False, None, [('Servidores de Aula', False, '/controlies/gestion/servidores_aula'), ('Importaci\\xc3\\xb3n de Rayuela', False, '/controlies/gestion/rayuela')]), ('Base de Datos', False, None, [('Port\\xc3\\xa1tiles', False, '/controlies/laptops/index'), ('Grupos', False, '/controlies/laptops_groups/index'), ('Marcas', False, '/controlies/laptops_trademarks/index')]), ('Informes', False, None, [('Compromisos Port\\xc3\\xa1tiles', False, '/controlies/reports/laptops')]), ('Acerca de', False, 'javascript:showInfo()'), [('Mantenimiento de LDAP', False, None, [('Limpieza de usuarios inexistentes en grupos', False, '/controlies/gestion/limpieza_usuarios'), ('Detecci\\xc3\\xb3n de uid o gid duplicados', False, '/controlies/gestion/duplicados')])]]"
p5802
sssS'traceback'
p5803
S'Traceback (most recent call last):\n  File "/home/manu/proyectos/web2py/gluon/restricted.py", line 212, in restricted\n    exec ccode in environment\n  File "/home/manu/proyectos/web2py/applications/controlies/views/default/index.html", line 99, in <module>\n  File "/home/manu/proyectos/web2py/gluon/globals.py", line 197, in write\n    self.body.write(xmlescape(data))\n  File "/home/manu/proyectos/web2py/gluon/html.py", line 120, in xmlescape\n    return data.xml()\n  File "/home/manu/proyectos/web2py/gluon/html.py", line 2358, in xml\n    return self.serialize(self.data, 0).xml()\n  File "/home/manu/proyectos/web2py/gluon/html.py", line 2317, in serialize\n    (name, active, link) = item[:3]\nValueError: need more than 1 value to unpack\n'
p5804
s.